(dp1
S'output'
p2
S'missing "pass" in view'
p3
sS'layer'
p4
S'ParserContainer'
p5
sS'code'
p6
S'response.write(\'<!--[if HTML5]><![endif]-->\\n<!DOCTYPE html>\\n<!-- paulirish.com/2008/conditional-stylesheets-vs-css-hacks-answer-neither/ -->\\n<!--[if lt IE 7]><html class="ie ie6 ie-lte9 ie-lte8 ie-lte7 no-js" lang="\', escape=False)\nresponse.write(T.accepted_language or \'en\')\nresponse.write(\'"> <![endif]-->\\n<!--[if IE 7]><html class="ie ie7 ie-lte9 ie-lte8 ie-lte7 no-js" lang="\', escape=False)\nresponse.write(T.accepted_language or \'en\')\nresponse.write(\'"> <![endif]-->\\n<!--[if IE 8]><html class="ie ie8 ie-lte9 ie-lte8 no-js" lang="\', escape=False)\nresponse.write(T.accepted_language or \'en\')\nresponse.write(\'"> <![endif]-->\\n<!--[if IE 9]><html class="ie9 ie-lte9 no-js" lang="\', escape=False)\nresponse.write(T.accepted_language or \'en\')\nresponse.write(\'"> <![endif]-->\\n<!--[if (gt IE 9)|!(IE)]><!--> <html class="no-js" lang="\', escape=False)\nresponse.write(T.accepted_language or \'en\')\nresponse.write(\'"> <!--<![endif]-->\\n<head>\\n<title>\', escape=False)\nresponse.write(response.title or request.application)\nresponse.write(\'</title>\\n  <!--[if !HTML5]>\\n      <meta http-equiv="X-UA-Compatible" content="IE=edge\', escape=False)\nresponse.write(not request.is_local and \',chrome=1\' or \'\')\nresponse.write(\'">\\n  <![endif]-->\\n  <!-- www.phpied.com/conditional-comments-block-downloads/ -->\\n  <!-- Always force latest IE rendering engine\\n       (even in intranet) & Chrome Frame\\n       Remove this if you use the .htaccess -->\\n\\t   \\n  <meta charset="utf-8" />\\n\\n  <!-- http://dev.w3.org/html5/markup/meta.name.html -->\\n  <meta name="application-name" content="\', escape=False)\nresponse.write(request.application)\nresponse.write(\'" />\\n\\n  <!-- Speaking of Google, don\\\'t forget to set your site up:\\n       http://google.com/webmasters -->\\n  <meta name="google-site-verification" content="" />\\n\\n  <!--  Mobile Viewport Fix\\n        j.mp/mobileviewport & davidbcalhoun.com/2010/viewport-metatag\\n        device-width: Occupy full width of the screen in its current orientation\\n        initial-scale = 1.0 retains dimensions instead of zooming out if page height > device height\\n        user-scalable = yes allows the user to zoom in -->\\n  <meta name="viewport" content="width=device-width, initial-scale=1.0" />\\n\\n  <link rel="shortcut icon" href="\', escape=False)\nresponse.write(URL(\'static\',\'images/favicon.ico\'))\nresponse.write(\'" type="image/x-icon">\\n  <link rel="apple-touch-icon" href="\', escape=False)\nresponse.write(URL(\'static\',\'images/favicon.png\'))\nresponse.write(\'">\\n\\n  <!-- All JavaScript at the bottom, except for Modernizr which enables\\n       HTML5 elements & feature detects -->\\n  <script src="\', escape=False)\nresponse.write(URL(\'static\',\'js/modernizr.custom.js\'))\nresponse.write(\'"></script>\\n\\n  <!-- include stylesheets -->\\n  \', escape=False)\nresponse.files.insert(0,URL(\'static\',\'css/web2py.css\'))\nresponse.files.insert(1,URL(\'static\',\'css/bootstrap.min.css\'))\nresponse.files.insert(2,URL(\'static\',\'css/bootstrap-responsive.min.css\'))\nresponse.files.insert(3,URL(\'static\',\'css/web2py_bootstrap.css\'))\nresponse.write(\'\\n\\n  \', escape=False)\nresponse.write(\'<script type="text/javascript"><!--\\n    // These variables are used by the web2py_ajax_init function in web2py_ajax.js (which is loaded below).\\n    var w2p_ajax_confirm_message = "\', escape=False)\nresponse.write(T(\'Are you sure you want to delete this object?\'))\nresponse.write(\'";\\n    var w2p_ajax_disable_with_message = "\', escape=False)\nresponse.write(T(\'Working...\'))\nresponse.write(\'";\\n    var w2p_ajax_date_format = "\', escape=False)\nresponse.write(T(\'%Y-%m-%d\'))\nresponse.write(\'";\\n    var w2p_ajax_datetime_format = "\', escape=False)\nresponse.write(T(\'%Y-%m-%d %H:%M:%S\'))\nresponse.write(\'";\\n    var ajax_error_500 = \\\'\', escape=False)\nresponse.write(XML(T(\'An error occured, please %s the page\') % A(T(\'reload\'), _href=URL(args=request.args, vars=request.get_vars))))\nresponse.write("\'\\n    //--></script>\\n", escape=False)\nresponse.files.insert(0,URL(\'static\',\'js/jquery.js\'))\nresponse.files.insert(1,URL(\'static\',\'css/calendar.css\'))\nresponse.files.insert(2,URL(\'static\',\'js/calendar.js\'))\nresponse.files.insert(3,URL(\'static\',\'js/web2py.js\'))\nresponse.include_meta()\nresponse.include_files()\nresponse.write(\'\\n\', escape=False)\nresponse.write(\'\\n\\n  \', escape=False)\n# using sidebars need to know what sidebar you want to use\nleft_sidebar_enabled = globals().get(\'left_sidebar_enabled\',False)\nright_sidebar_enabled = globals().get(\'right_sidebar_enabled\',False)\nmiddle_columns = {0:\'span12\',1:\'span9\',2:\'span6\'}[\n(left_sidebar_enabled and 1 or 0)+(right_sidebar_enabled and 1 or 0)]\nresponse.write(\'\\n\\n  <!-- uncomment here to load jquery-ui\\n       <link rel="stylesheet" href="http://ajax.googleapis.com/ajax/libs/jqueryui/1.10.3/themes/base/jquery-ui.css" type="text/css" media="all" />\\n       <script src="http://ajax.googleapis.com/ajax/libs/jqueryui/1.10.3/jquery-ui.min.js" type="text/javascript"></script>\\n       uncomment to load jquery-ui //-->\\n  <noscript><link href="\', escape=False)\nresponse.write(URL(\'static\', \'css/web2py_bootstrap_nojs.css\'))\nresponse.write(\'" rel="stylesheet" type="text/css" /></noscript>\\n  \', escape=False)\nresponse.write(\'\\n</head>\\n\\n<body>\\n  <!-- Navbar ================================================== -->\\n  <div class="navbar navbar-inverse">\\n    <div class="flash">\', escape=False)\nresponse.write(response.flash or \'\')\nresponse.write(\'</div>\\n    <div class="navbar-inner">\\n      <div class="container">\\n        \', escape=False)\nis_mobile=request.user_agent().is_mobile\nresponse.write(\'\\n        <!-- the next tag is necessary for bootstrap menus, do not remove -->\\n        <button type="button" class="btn btn-navbar" data-toggle="collapse" data-target=".nav-collapse" style="\', escape=False)\nresponse.write(\'display:none;\' if not is_mobile else \'\')\nresponse.write(\'">\\n          <span class="icon-bar"></span>\\n          <span class="icon-bar"></span>\\n          <span class="icon-bar"></span>\\n        </button>\\n        \', escape=False)\nresponse.write(response.logo or \'\')\nresponse.write(\'\\n        <ul id="navbar" class="nav pull-right">\', escape=False)\nresponse.write(\'auth\' in globals() and auth.navbar(mode="dropdown") or \'\')\nresponse.write(\'</ul>\\n        <div class="\', escape=False)\nresponse.write(\'nav-collapse\' if is_mobile else \'nav\')\nresponse.write(\'">\\n          \', escape=False)\nif response.menu:\n    response.write(\'\\n          \', escape=False)\n    response.write(MENU(response.menu, _class=\'mobile-menu nav\' if is_mobile else \'nav\',mobile=is_mobile,li_class=\'dropdown\',ul_class=\'dropdown-menu\'))\n    response.write(\'\\n          \', escape=False)\n    pass\nresponse.write(\'\\n        </div><!--/.nav-collapse -->\\n      </div>\\n    </div>\\n  </div><!--/top navbar -->\\n\\n  <div class="container">\\n    <!-- Masthead ================================================== -->\\n    <header class="mastheader row" id="header">\\n      \', escape=False)\nif response.title:\n    response.write(\'\\n        <div class="span12">\\n            <div class="page-header">\\n                <!--\', escape=False)\n    response.write(response.title)\n    response.write(\'-->\\n                <h1>\\n                    <table id=\\\'menu\\\' border="0" width="100%" cellspacing="0" cellpadding="0"  >\\n                        <tr>\\n                            <td>\\n                                 <a href="/thegarage/default/index">\\n                                <img src="http://i863.photobucket.com/albums/ab191/thegarage183/thegarage3_zpsab5bc60e.png" \\n                                    align=\\\'left\\\'>\\n                                </a>\\n                            </td>\\n                             <td>\\n                                <font color="#000000"> <font size="3">\', escape=False)\n    response.write(A(\'Home\', _href=URL(\'default\', \'index\')))\n    response.write(\'</font><br>\\n                                 <a href="/thegarage/default/index">  \\n                                <img src="http://i863.photobucket.com/albums/ab191/thegarage183/home2x_zps9e1d9616.png" width=55px>\\n                                </a>\\n                            </td>\\n                            <td>\\n                                <font size="3">\', escape=False)\n    response.write(A(\'About us\', _href=URL(\'default\', \'About_us\')))\n    response.write(\'</font><br>\\n                                <a href="/thegarage/default/About_us">\\n                                <img src="http://i863.photobucket.com/albums/ab191/thegarage183/geek2x_zps7ced6a66.png">\\n                                </a>\\n                            </td>\\n                            <td>\\n                                <font size="3">\', escape=False)\n    response.write(A(\'Available\', _href=URL(\'default\', \'available\')))\n    response.write(\'</font><br>\\n                                <a href="/thegarage/default/available">\\n                                <img src="http://i863.photobucket.com/albums/ab191/thegarage183/suitecase2x_zps5f420cd6.png">\\n                                </a>\\n                            </td>\\n                            <td>\\n                                <font size="3">\', escape=False)\n    response.write(A(\'Borrowed\', _href=URL(\'default\', \'Borrowed\')))\n    response.write(\'</font><br>\\n                                <a href="/thegarage/default/Borrowed">\\n                                <img src="http://i863.photobucket.com/albums/ab191/thegarage183/wheelbarrow2x_zps8a7f0be6.png"> \\n                                </a> \\n                            </td>\\n                            <td>\\n                                <font size="3">\', escape=False)\n    response.write(A(\'Friends\', _href=URL(\'default\', \'friends\')))\n    response.write(\'</font><br>\\n                                 <a href="/thegarage/default/friends">\\n                                <img src="http://i863.photobucket.com/albums/ab191/thegarage183/users2x_zps25e8297b.png">\\n                                 </a>\\n                            </td>\\n                        </tr>\\n                    </table>\\n                    <small>\', escape=False)\n    response.write(response.subtitle or \'\')\n    response.write(\'</small>\\n                </h1>\\n            </div>\\n        </div>\\n\\t\', escape=False)\n    pass\nresponse.write(\'\\n    </header>\\n\\n      <section id="main" class="main row">\\n        \', escape=False)\nif left_sidebar_enabled:\n    response.write(\'\\n        <div class="span3 left-sidebar">\\n            \', escape=False)\n    response.write(\'\\n            <h3>Left Sidebar</h3>\\n            <p></p>\\n            \', escape=False)\n    response.write(\'\\n        </div>\\n        \', escape=False)\n    pass\nresponse.write(\'\\n\\n        <div class="\', escape=False)\nresponse.write(middle_columns)\nresponse.write(\'">\\n            \', escape=False)\nresponse.write(\'\\n            \', escape=False)\nresponse.write(\'\\r\\n\\r\\n<h4>\\r\\n    Items you are borrowing\\r\\n</h4>\\r\\n\\r\\n<div id="borrowing">\\r\\n    <h4>\\r\\n        From\\r\\n    </h4>\\r\\n    <table border="1">\\r\\n        <tr id="linearBg">\\r\\n            <td>\\r\\n                User Email\\r\\n            </td>\\r\\n            <td>\\r\\n                Item Description\\r\\n            </td>\\r\\n            <td>\\r\\n                Borrowed On\\r\\n            </td>\\r\\n            <td>\\r\\n                Borrowed Until\\r\\n            </td>\\r\\n            <td style="min-width: 125px">\\r\\n                Image\\r\\n            </td>\\r\\n        </tr>\\r\\n        \', escape=False)\nfor r in items1:\n    response.write(\'\\r\\n                <tr>\\r\\n                    <td>\\r\\n                        \', escape=False)\n    response.write(r.item_owner)\n    response.write(\'\\r\\n                    </td>\\r\\n                    <td>\\r\\n                        \', escape=False)\n    response.write(r.description)\n    response.write(\'\\r\\n                    </td>\\r\\n                    <td>\\r\\n                        \', escape=False)\n    response.write(r.start_date)\n    response.write(\'\\r\\n                    </td>\\r\\n                    <td>\\r\\n                        \', escape=False)\n    response.write(r.end_date)\n    response.write(\'\\r\\n                    </td>\\r\\n                    <td style="max-width: 300px; overflow: hidden">\\r\\n                        <img src="\', escape=False)\n    response.write(URL(\'download\', args=r.item_image))\n    response.write(\'" />\\r\\n                    </td>\\r\\n                </tr>\\r\\n        \', escape=False)\n    pass\nresponse.write(\'\\r\\n    </table>\\r\\n</div>\\r\\n\\r\\n<br>\\r\\n\\r\\n<h4>\\r\\n    Items you are lending\\r\\n</h4>\\r\\n\\r\\n<div id="borrowedOut">\\r\\n    <h4>\\r\\n       To\\r\\n    </h4>\\r\\n    <table border="1">\\r\\n        <tr id="linearBg">\\r\\n            <td>\\r\\n                User Email\\r\\n            </td>\\r\\n            <td>\\r\\n                Item Description\\r\\n            </td>\\r\\n            <td>\\r\\n                Borrowed On\\r\\n            </td>\\r\\n            <td>\\r\\n                Borrowed Until\\r\\n            </td>\\r\\n            <td style="min-width: 125px">\\r\\n                Image\\r\\n            </td>\\r\\n        </tr>\\r\\n        \', escape=False)\nfor r in items2:\n    response.write(\'\\r\\n                <tr>\\r\\n                    <td>\\r\\n                        \', escape=False)\n    response.write(r.borrower)\n    response.write(\'\\r\\n                    </td>\\r\\n                    <td>\\r\\n                        \', escape=False)\n    response.write(r.description)\n    response.write(\'\\r\\n                    </td>\\r\\n                    <td>\\r\\n                        \', escape=False)\n    response.write(r.start_date)\n    response.write(\'\\r\\n                    </td>\\r\\n                    <td>\\r\\n                        \', escape=False)\n    response.write(r.end_date)\n    response.write(\'\\r\\n                    </td>\\r\\n                    <td style="max-width: 300px; overflow: hidden">\\r\\n                        <img src="\', escape=False)\n    response.write(URL(\'download\', args=r.item_image))\n    response.write(\'" />\\r\\n                    </td>\\r\\n                </tr>\\r\\n        \', escape=False)\n    pass\nresponse.write(\'\\r\\n    </table>\\r\\n</div>\\r\\n\\r\\n<div id="pendingItems">\\r\\n    <h4>\\r\\n       Notifications\\r\\n    </h4>\\r\\n    <table border="1">\\r\\n        <tr id="linearBg">\\r\\n            <td>\\r\\n                User Email\\r\\n            </td>\\r\\n            <td>\\r\\n                Item Description\\r\\n            </td>\\r\\n            <td>\\r\\n                Borrowed On\\r\\n            </td>\\r\\n            <td>\\r\\n                Borrowed Until\\r\\n            </td>\\r\\n            <td style="min-width: 125px">\\r\\n                Image\\r\\n            </td>\\r\\n        </tr>\\r\\n        \', escape=False)\nfor x in items2:\n    response.write(\'\\r\\n            \', escape=False)\n    pen = db(x.item_state == 2).select()\n    response.write(\'\\r\\n            \', escape=False)\n    for x in pen:\n        response.write(\'\\r\\n                <tr>\\r\\n                    <td>\\r\\n                        \', escape=False)\n        response.write(r.borrower)\n        response.write(\'\\r\\n                    </td>\\r\\n                    <td>\\r\\n                        \', escape=False)\n        response.write(r.description)\n        response.write(\'\\r\\n                    </td>\\r\\n                    <td>\\r\\n                        \', escape=False)\n        response.write(r.start_date)\n        response.write(\'\\r\\n                    </td>\\r\\n                    <td>\\r\\n                        \', escape=False)\n        response.write(r.end_date)\n        response.write(\'\\r\\n                    </td>\\r\\n                    <td style="max-width: 300px; overflow: hidden">\\r\\n                        <img src="\', escape=False)\n        response.write(URL(\'download\', args=r.item_image))\n        response.write(\'" />\\r\\n                    </td>\\r\\n                </tr>\\r\\n        \', escape=False)\n        pass\n    response.write(\'\\r\\n    </table>\\r\\n</div>\\r\\n\\r\\n\\r\\n<style type="text/css">\\r\\n    #borrowing\\r\\n    {\\r\\n        position:relative;\\r\\n        overflow:hidden;\\r\\n        border:thin black solid;\\r\\n        border-style:solid none none solid;\\r\\n        padding:10px;\\r\\n        display:block;\\r\\n    }\\r\\n    \\r\\n    #borrowedOut\\r\\n    {\\r\\n        position:relative;\\r\\n        overflow:hidden;\\r\\n        border:thin black solid;\\r\\n        border-style:solid none none solid;\\r\\n        padding:10px;\\r\\n        display:block;\\r\\n    }\\r\\n\\r\\n    #linearBg {\\r\\n        /* fallback */\\r\\n        color: white;\\r\\n        background-color: #1a82f7;\\r\\n        background-repeat: repeat-x;\\r\\n\\r\\n        /* Safari 4-5, Chrome 1-9 */\\r\\n        background: -webkit-gradient(linear, 0% 0%, 0% 100%, from(#1a82f7), to(#2F2727));\\r\\n\\r\\n        /* Safari 5.1, Chrome 10+ */\\r\\n        background: -webkit-linear-gradient(top, #2F2727, #1a82f7);\\r\\n\\r\\n        /* Firefox 3.6+ */\\r\\n        background: -moz-linear-gradient(top, #2F2727, #1a82f7);\\r\\n\\r\\n        /* IE 10 */\\r\\n        background: -ms-linear-gradient(top, #2F2727, #1a82f7);\\r\\n\\r\\n        /* Opera 11.10+ */\\r\\n        background: -o-linear-gradient(top, #2F2727, #1a82f7);\\r\\n    }\\r\\n</style>\\r\\n\', escape=False)\n    response.write(\'\\n            \', escape=False)\n    response.write(\'\\n        </div>\\n\\n        \', escape=False)\n    if right_sidebar_enabled:\n        response.write(\'\\n        <div class="span3">\\n            \', escape=False)\n        response.write(\'\\n            <h3>Right Sidebar</h3>\\n            <p></p>\\n            \', escape=False)\n        response.write(\'\\n        </div>\\n        \', escape=False)\n        pass\n    response.write(\'\\n    </section><!--/main-->\\n\\n    <!-- Footer ================================================== -->\\n    <div class="row">\\n        <footer class="footer span12" id="footer">\\n            <div class="footer-content">\\n                \', escape=False)\n    response.write(\' <!-- this is default footer -->\\n                <div class="copyright pull-left">\', escape=False)\n    response.write(T(\'Copyright\'))\n    response.write(\' &#169; \', escape=False)\n    response.write(request.now.year)\n    response.write(\'</div>\\n                <div id="poweredBy" class="pull-right">\\n                    \', escape=False)\n    response.write(T(\'Powered by\'))\n    response.write(\'\\n                    <a href="http://www.web2py.com/">web2py</a>\\n                </div>\\n                \', escape=False)\n    response.write(\'\\n            </div>\\n        </footer>\\n    </div>\\n      \\n  </div> <!-- /container -->\\n\\n  <!-- The javascript =============================================\\n       (Placed at the end of the document so the pages load faster) -->\\n  <script src="\', escape=False)\n    response.write(URL(\'static\',\'js/bootstrap.min.js\'))\n    response.write(\'"></script>\\n  <script src="\', escape=False)\n    response.write(URL(\'static\',\'js/web2py_bootstrap.js\'))\n    response.write(\'"></script>\\n  <!--[if lt IE 7 ]>\\n      <script src="\', escape=False)\n    response.write(URL(\'static\',\'js/dd_belatedpng.js\'))\n    response.write(\'"></script>\\n      <script> DD_belatedPNG.fix(\\\'img, .png_bg\\\'); //fix any <img> or .png_bg background-images </script>\\n      <![endif]-->\\n  \\n  \', escape=False)\n    if response.google_analytics_id:\n        response.write(\'\\n  <script src="\', escape=False)\n        response.write(URL(\'static\',\'js/analytics.min.js\'))\n        response.write(\'"></script>\\n  <script type="text/javascript">\\n  analytics.initialize({\\n    \\\'Google Analytics\\\':{trackingId:\\\'\', escape=False)\n        response.write(response.google_analytics_id)\n        response.write("\'} \\n  });</script>\\n  ", escape=False)\n        pass\n    response.write(\'\\n  <script src="\', escape=False)\n    response.write(URL(\'static\',\'js/share.js\',vars=dict(static=URL(\'static\',\'images\'))))\n    response.write(\'"></script>\\n</body>\\n</html>\\n\', escape=False)'
p7
sS'snapshot'
p8
(dp9
S'exception'
p10
(dp11
S'__module__'
p12
S"'gluon.rocket'"
p13
sS'__getslice__'
p14
S"<method-wrapper '__getslice__' of SocketTimeout object>"
p15
sS'__str__'
p16
S"<method-wrapper '__str__' of SocketTimeout object>"
p17
sS'__reduce__'
p18
S'<built-in method __reduce__ of SocketTimeout object>'
p19
sS'__dict__'
p20
S'{}'
p21
sS'__sizeof__'
p22
S'<built-in method __sizeof__ of SocketTimeout object>'
p23
sS'__weakref__'
p24
S'None'
p25
sS'__init__'
p26
S"<method-wrapper '__init__' of SocketTimeout object>"
p27
sS'__setattr__'
p28
S"<method-wrapper '__setattr__' of SocketTimeout object>"
p29
sS'__reduce_ex__'
p30
S'<built-in method __reduce_ex__ of SocketTimeout object>'
p31
sS'__new__'
p32
S'<built-in method __new__ of type object>'
p33
sS'__format__'
p34
S'<built-in method __format__ of SocketTimeout object>'
p35
sS'__class__'
p36
S"<class 'gluon.rocket.SocketTimeout'>"
p37
sS'__doc__'
p38
S"'Exception for when a socket times out between requests.'"
p39
sS'__getitem__'
p40
S"<method-wrapper '__getitem__' of SocketTimeout object>"
p41
sS'__setstate__'
p42
S'<built-in method __setstate__ of SocketTimeout object>'
p43
sS'__getattribute__'
p44
S"<method-wrapper '__getattribute__' of SocketTimeout object>"
p45
sS'args'
p46
S"('Socket timed out before request.',)"
p47
sS'__subclasshook__'
p48
S'<built-in method __subclasshook__ of type object>'
p49
sS'__unicode__'
p50
S'<built-in method __unicode__ of SocketTimeout object>'
p51
sS'__delattr__'
p52
S"<method-wrapper '__delattr__' of SocketTimeout object>"
p53
sS'__repr__'
p54
S"<method-wrapper '__repr__' of SocketTimeout object>"
p55
sS'__hash__'
p56
S"<method-wrapper '__hash__' of SocketTimeout object>"
p57
ssS'evalue'
p58
S'Socket timed out before request.'
p59
sS'frames'
p60
(lp61
(dp62
S'file'
p63
S'C:\\home\\mdipierro\\make_web2py\\web2py\\gluon\\rocket.py'
p64
sS'dump'
p65
(dp66
sS'lnum'
p67
I1337
sS'lines'
p68
(dp69
sS'call'
p70
S'(self=<WSGIWorker(Thread-9, started daemon 6612)>)'
p71
sS'func'
p72
S'run'
p73
sa(dp74
g63
S'C:\\home\\mdipierro\\make_web2py\\web2py\\gluon\\rocket.py'
p75
sg65
(dp76
sg67
I1830
sg68
(dp77
sg70
S'(self=<WSGIWorker(Thread-9, started daemon 6612)>, conn=<gluon.rocket.Connection object>)'
p78
sg72
S'run_app'
p79
sa(dp80
g63
S'C:\\home\\mdipierro\\make_web2py\\web2py\\gluon\\rocket.py'
p81
sg65
(dp82
sg67
I1650
sg68
(dp83
sg70
S'(self=<WSGIWorker(Thread-9, started daemon 6612)>, sock_file=<socket._fileobject object>, conn=<gluon.rocket.Connection object>)'
p84
sg72
S'build_environ'
p85
sa(dp86
g63
S'C:\\home\\mdipierro\\make_web2py\\web2py\\gluon\\rocket.py'
p87
sg65
(dp88
sg67
I1401
sg68
(dp89
sg70
S'(self=<WSGIWorker(Thread-9, started daemon 6612)>, sock_file=<socket._fileobject object>)'
p90
sg72
S'read_request_line'
p91
sasS'pyver'
p92
S'Python 2.7: C:\\Users\\Aguilar\\Documents\\web2py\\web2py.exe (prefix: C:\\Users\\Aguilar\\Documents\\web2py)'
p93
sS'etype'
p94
S"<class 'gluon.rocket.SocketTimeout'>"
p95
sS'date'
p96
S'Thu Nov 21 12:17:33 2013'
p97
sS'locals'
p98
(dp99
S'sock_file'
p100
S'<socket._fileobject object>'
p101
sS'self'
p102
S'<WSGIWorker(Thread-9, started daemon 6612)>'
p103
sssS'traceback'
p104
S'Traceback (most recent call last):\n  File "/home/mdipierro/make_web2py/web2py/gluon/rocket.py", line 1337, in run\n  File "/home/mdipierro/make_web2py/web2py/gluon/rocket.py", line 1830, in run_app\n  File "/home/mdipierro/make_web2py/web2py/gluon/rocket.py", line 1650, in build_environ\n  File "/home/mdipierro/make_web2py/web2py/gluon/rocket.py", line 1401, in read_request_line\nSocketTimeout: Socket timed out before request.\n'
p105
s.