(dp1
S'output'
p2
S"<type 'exceptions.TypeError'> __init__() got an unexpected keyword argument 'defualt'"
p3
sS'layer'
p4
S'C:\\Users\\Aguilar\\Documents\\web2py\\applications\\thegarage\\models\\tables.py'
p5
sS'code'
p6
S"# coding: utf8\nfrom datetime import datetime\n\n\ndb.define_table('person',\n                Field('name', 'string'),\n                Field('email', 'string', requires=IS_EMAIL()),\n                Field('a_id', db.auth_user, default=auth.user_id), #a_id is the auth user, will be used in items table\n                Field('rep', 'float', defualt=10.00),\n                \n                )\n\ndb.define_table('items',\n            Field('item_owner', db.auth_user, default=auth.user_id),\n            Field('start_date', 'datetime', default=datetime.utcnow()),\n            Field('end_date', 'datetime'),\n            Field('borrower', 'string', default=None),\n            Field('item_image', 'upload'),\n            Field('description', 'text'),\n            Field('tag', 'string'),\n\n    )\n"
p7
sS'snapshot'
p8
(dp9
S'exception'
p10
(dp11
S'__hash__'
p12
S"<method-wrapper '__hash__' of exceptions.TypeError object>"
p13
sS'__setattr__'
p14
S"<method-wrapper '__setattr__' of exceptions.TypeError object>"
p15
sS'__reduce_ex__'
p16
S'<built-in method __reduce_ex__ of exceptions.TypeError object>'
p17
sS'__getslice__'
p18
S"<method-wrapper '__getslice__' of exceptions.TypeError object>"
p19
sS'__getitem__'
p20
S"<method-wrapper '__getitem__' of exceptions.TypeError object>"
p21
sS'__setstate__'
p22
S'<built-in method __setstate__ of exceptions.TypeError object>'
p23
sS'__reduce__'
p24
S'<built-in method __reduce__ of exceptions.TypeError object>'
p25
sS'__str__'
p26
S"<method-wrapper '__str__' of exceptions.TypeError object>"
p27
sS'__format__'
p28
S'<built-in method __format__ of exceptions.TypeError object>'
p29
sS'__getattribute__'
p30
S"<method-wrapper '__getattribute__' of exceptions.TypeError object>"
p31
sS'__class__'
p32
S"<type 'exceptions.TypeError'>"
p33
sS'__unicode__'
p34
S'<built-in method __unicode__ of exceptions.TypeError object>'
p35
sS'__delattr__'
p36
S"<method-wrapper '__delattr__' of exceptions.TypeError object>"
p37
sS'__subclasshook__'
p38
S'<built-in method __subclasshook__ of type object>'
p39
sS'__repr__'
p40
S"<method-wrapper '__repr__' of exceptions.TypeError object>"
p41
sS'args'
p42
S'("__init__() got an unexpected keyword argument \'defualt\'",)'
p43
sS'__dict__'
p44
S'{}'
p45
sS'__sizeof__'
p46
S'<built-in method __sizeof__ of exceptions.TypeError object>'
p47
sS'__doc__'
p48
S"'Inappropriate argument type.'"
p49
sS'__init__'
p50
S"<method-wrapper '__init__' of exceptions.TypeError object>"
p51
sS'__new__'
p52
S'<built-in method __new__ of type object>'
p53
ssS'evalue'
p54
S"__init__() got an unexpected keyword argument 'defualt'"
p55
sS'request'
p56
cgluon.html
XML_unpickle
p57
(S's8\x99\x00\x00<div><table><tr><td style="font-weight:bold;vertical-align:top;">ajax</td><td style="vertical-align:top;">:</td><td><div>False</div></td></tr><tr><td style="font-weight:bold;vertical-align:top;">application</td><td style="vertical-align:top;">:</td><td><div>thegarage</div></td></tr><tr><td style="font-weight:bold;vertical-align:top;">args</td><td style="vertical-align:top;">:</td><td><div><table></table></div></td></tr><tr><td style="font-weight:bold;vertical-align:top;">cid</td><td style="vertical-align:top;">:</td><td><div>None</div></td></tr><tr><td style="font-weight:bold;vertical-align:top;">client</td><td style="vertical-align:top;">:</td><td><div>127.0.0.1</div></td></tr><tr><td style="font-weight:bold;vertical-align:top;">controller</td><td style="vertical-align:top;">:</td><td><div>default</div></td></tr><tr><td style="font-weight:bold;vertical-align:top;">cookies</td><td style="vertical-align:top;">:</td><td><div><table><tr><td style="font-weight:bold;vertical-align:top;">session_id_admin</td><td style="vertical-align:top;">:</td><td><div>127.0.0.1-738b084a-a090-4584-8eff-af2c98603399<table><tr><td style="font-weight:bold;vertical-align:top;">comment</td><td style="vertical-align:top;">:</td><td><div></div></td></tr><tr><td style="font-weight:bold;vertical-align:top;">domain</td><td style="vertical-align:top;">:</td><td><div></div></td></tr><tr><td style="font-weight:bold;vertical-align:top;">expires</td><td style="vertical-align:top;">:</td><td><div></div></td></tr><tr><td style="font-weight:bold;vertical-align:top;">httponly</td><td style="vertical-align:top;">:</td><td><div></div></td></tr><tr><td style="font-weight:bold;vertical-align:top;">max-age</td><td style="vertical-align:top;">:</td><td><div></div></td></tr><tr><td style="font-weight:bold;vertical-align:top;">path</td><td style="vertical-align:top;">:</td><td><div></div></td></tr><tr><td style="font-weight:bold;vertical-align:top;">secure</td><td style="vertical-align:top;">:</td><td><div></div></td></tr><tr><td style="font-weight:bold;vertical-align:top;">version</td><td style="vertical-align:top;">:</td><td><div></div></td></tr></table></div></td></tr><tr><td style="font-weight:bold;vertical-align:top;">session_id_appfirst</td><td style="vertical-align:top;">:</td><td><div>127.0.0.1-b42d6594-daa3-4203-9341-b10168722834<table><tr><td style="font-weight:bold;vertical-align:top;">comment</td><td style="vertical-align:top;">:</td><td><div></div></td></tr><tr><td style="font-weight:bold;vertical-align:top;">domain</td><td style="vertical-align:top;">:</td><td><div></div></td></tr><tr><td style="font-weight:bold;vertical-align:top;">expires</td><td style="vertical-align:top;">:</td><td><div></div></td></tr><tr><td style="font-weight:bold;vertical-align:top;">httponly</td><td style="vertical-align:top;">:</td><td><div></div></td></tr><tr><td style="font-weight:bold;vertical-align:top;">max-age</td><td style="vertical-align:top;">:</td><td><div></div></td></tr><tr><td style="font-weight:bold;vertical-align:top;">path</td><td style="vertical-align:top;">:</td><td><div></div></td></tr><tr><td style="font-weight:bold;vertical-align:top;">secure</td><td style="vertical-align:top;">:</td><td><div></div></td></tr><tr><td style="font-weight:bold;vertical-align:top;">version</td><td style="vertical-align:top;">:</td><td><div></div></td></tr></table></div></td></tr><tr><td style="font-weight:bold;vertical-align:top;">session_id_geodrop</td><td style="vertical-align:top;">:</td><td><div>127.0.0.1-f28de893-f122-4a2d-8f8f-a6ec2e6c2567<table><tr><td style="font-weight:bold;vertical-align:top;">comment</td><td style="vertical-align:top;">:</td><td><div></div></td></tr><tr><td style="font-weight:bold;vertical-align:top;">domain</td><td style="vertical-align:top;">:</td><td><div></div></td></tr><tr><td style="font-weight:bold;vertical-align:top;">expires</td><td style="vertical-align:top;">:</td><td><div></div></td></tr><tr><td style="font-weight:bold;vertical-align:top;">httponly</td><td style="vertical-align:top;">:</td><td><div></div></td></tr><tr><td style="font-weight:bold;vertical-align:top;">max-age</td><td style="vertical-align:top;">:</td><td><div></div></td></tr><tr><td style="font-weight:bold;vertical-align:top;">path</td><td style="vertical-align:top;">:</td><td><div></div></td></tr><tr><td style="font-weight:bold;vertical-align:top;">secure</td><td style="vertical-align:top;">:</td><td><div></div></td></tr><tr><td style="font-weight:bold;vertical-align:top;">version</td><td style="vertical-align:top;">:</td><td><div></div></td></tr></table></div></td></tr><tr><td style="font-weight:bold;vertical-align:top;">session_id_hw2</td><td style="vertical-align:top;">:</td><td><div>127.0.0.1-fbb55e86-72d7-423d-b1d1-65f2cf0f7598<table><tr><td style="font-weight:bold;vertical-align:top;">comment</td><td style="vertical-align:top;">:</td><td><div></div></td></tr><tr><td style="font-weight:bold;vertical-align:top;">domain</td><td style="vertical-align:top;">:</td><td><div></div></td></tr><tr><td style="font-weight:bold;vertical-align:top;">expires</td><td style="vertical-align:top;">:</td><td><div></div></td></tr><tr><td style="font-weight:bold;vertical-align:top;">httponly</td><td style="vertical-align:top;">:</td><td><div></div></td></tr><tr><td style="font-weight:bold;vertical-align:top;">max-age</td><td style="vertical-align:top;">:</td><td><div></div></td></tr><tr><td style="font-weight:bold;vertical-align:top;">path</td><td style="vertical-align:top;">:</td><td><div></div></td></tr><tr><td style="font-weight:bold;vertical-align:top;">secure</td><td style="vertical-align:top;">:</td><td><div></div></td></tr><tr><td style="font-weight:bold;vertical-align:top;">version</td><td style="vertical-align:top;">:</td><td><div></div></td></tr></table></div></td></tr><tr><td style="font-weight:bold;vertical-align:top;">session_id_rass21</td><td style="vertical-align:top;">:</td><td><div>127.0.0.1-db8b1edc-b4d4-460a-8c73-74ebcf695899<table><tr><td style="font-weight:bold;vertical-align:top;">comment</td><td style="vertical-align:top;">:</td><td><div></div></td></tr><tr><td style="font-weight:bold;vertical-align:top;">domain</td><td style="vertical-align:top;">:</td><td><div></div></td></tr><tr><td style="font-weight:bold;vertical-align:top;">expires</td><td style="vertical-align:top;">:</td><td><div></div></td></tr><tr><td style="font-weight:bold;vertical-align:top;">httponly</td><td style="vertical-align:top;">:</td><td><div></div></td></tr><tr><td style="font-weight:bold;vertical-align:top;">max-age</td><td style="vertical-align:top;">:</td><td><div></div></td></tr><tr><td style="font-weight:bold;vertical-align:top;">path</td><td style="vertical-align:top;">:</td><td><div></div></td></tr><tr><td style="font-weight:bold;vertical-align:top;">secure</td><td style="vertical-align:top;">:</td><td><div></div></td></tr><tr><td style="font-weight:bold;vertical-align:top;">version</td><td style="vertical-align:top;">:</td><td><div></div></td></tr></table></div></td></tr><tr><td style="font-weight:bold;vertical-align:top;">session_id_rass22</td><td style="vertical-align:top;">:</td><td><div>127.0.0.1-edb042d4-9846-4600-9aa9-35a01ac67be7<table><tr><td style="font-weight:bold;vertical-align:top;">comment</td><td style="vertical-align:top;">:</td><td><div></div></td></tr><tr><td style="font-weight:bold;vertical-align:top;">domain</td><td style="vertical-align:top;">:</td><td><div></div></td></tr><tr><td style="font-weight:bold;vertical-align:top;">expires</td><td style="vertical-align:top;">:</td><td><div></div></td></tr><tr><td style="font-weight:bold;vertical-align:top;">httponly</td><td style="vertical-align:top;">:</td><td><div></div></td></tr><tr><td style="font-weight:bold;vertical-align:top;">max-age</td><td style="vertical-align:top;">:</td><td><div></div></td></tr><tr><td style="font-weight:bold;vertical-align:top;">path</td><td style="vertical-align:top;">:</td><td><div></div></td></tr><tr><td style="font-weight:bold;vertical-align:top;">secure</td><td style="vertical-align:top;">:</td><td><div></div></td></tr><tr><td style="font-weight:bold;vertical-align:top;">version</td><td style="vertical-align:top;">:</td><td><div></div></td></tr></table></div></td></tr><tr><td style="font-weight:bold;vertical-align:top;">session_id_rass23</td><td style="vertical-align:top;">:</td><td><div>127.0.0.1-f790322a-d104-4a35-b74c-47c34a6bf205<table><tr><td style="font-weight:bold;vertical-align:top;">comment</td><td style="vertical-align:top;">:</td><td><div></div></td></tr><tr><td style="font-weight:bold;vertical-align:top;">domain</td><td style="vertical-align:top;">:</td><td><div></div></td></tr><tr><td style="font-weight:bold;vertical-align:top;">expires</td><td style="vertical-align:top;">:</td><td><div></div></td></tr><tr><td style="font-weight:bold;vertical-align:top;">httponly</td><td style="vertical-align:top;">:</td><td><div></div></td></tr><tr><td style="font-weight:bold;vertical-align:top;">max-age</td><td style="vertical-align:top;">:</td><td><div></div></td></tr><tr><td style="font-weight:bold;vertical-align:top;">path</td><td style="vertical-align:top;">:</td><td><div></div></td></tr><tr><td style="font-weight:bold;vertical-align:top;">secure</td><td style="vertical-align:top;">:</td><td><div></div></td></tr><tr><td style="font-weight:bold;vertical-align:top;">version</td><td style="vertical-align:top;">:</td><td><div></div></td></tr></table></div></td></tr><tr><td style="font-weight:bold;vertical-align:top;">session_id_rass24</td><td style="vertical-align:top;">:</td><td><div>127.0.0.1-1d03302c-b2f9-440b-ac4e-6ccc7050a91c<table><tr><td style="font-weight:bold;vertical-align:top;">comment</td><td style="vertical-align:top;">:</td><td><div></div></td></tr><tr><td style="font-weight:bold;vertical-align:top;">domain</td><td style="vertical-align:top;">:</td><td><div></div></td></tr><tr><td style="font-weight:bold;vertical-align:top;">expires</td><td style="vertical-align:top;">:</td><td><div></div></td></tr><tr><td style="font-weight:bold;vertical-align:top;">httponly</td><td style="vertical-align:top;">:</td><td><div></div></td></tr><tr><td style="font-weight:bold;vertical-align:top;">max-age</td><td style="vertical-align:top;">:</td><td><div></div></td></tr><tr><td style="font-weight:bold;vertical-align:top;">path</td><td style="vertical-align:top;">:</td><td><div></div></td></tr><tr><td style="font-weight:bold;vertical-align:top;">secure</td><td style="vertical-align:top;">:</td><td><div></div></td></tr><tr><td style="font-weight:bold;vertical-align:top;">version</td><td style="vertical-align:top;">:</td><td><div></div></td></tr></table></div></td></tr><tr><td style="font-weight:bold;vertical-align:top;">session_id_rass25</td><td style="vertical-align:top;">:</td><td><div>127.0.0.1-7cf7135c-faa7-4f36-acee-dd70ae0dd01c<table><tr><td style="font-weight:bold;vertical-align:top;">comment</td><td style="vertical-align:top;">:</td><td><div></div></td></tr><tr><td style="font-weight:bold;vertical-align:top;">domain</td><td style="vertical-align:top;">:</td><td><div></div></td></tr><tr><td style="font-weight:bold;vertical-align:top;">expires</td><td style="vertical-align:top;">:</td><td><div></div></td></tr><tr><td style="font-weight:bold;vertical-align:top;">httponly</td><td style="vertical-align:top;">:</td><td><div></div></td></tr><tr><td style="font-weight:bold;vertical-align:top;">max-age</td><td style="vertical-align:top;">:</td><td><div></div></td></tr><tr><td style="font-weight:bold;vertical-align:top;">path</td><td style="vertical-align:top;">:</td><td><div></div></td></tr><tr><td style="font-weight:bold;vertical-align:top;">secure</td><td style="vertical-align:top;">:</td><td><div></div></td></tr><tr><td style="font-weight:bold;vertical-align:top;">version</td><td style="vertical-align:top;">:</td><td><div></div></td></tr></table></div></td></tr><tr><td style="font-weight:bold;vertical-align:top;">session_id_thegarage</td><td style="vertical-align:top;">:</td><td><div>127.0.0.1-ab3594e8-5727-4804-978b-46276fcec329<table><tr><td style="font-weight:bold;vertical-align:top;">comment</td><td style="vertical-align:top;">:</td><td><div></div></td></tr><tr><td style="font-weight:bold;vertical-align:top;">domain</td><td style="vertical-align:top;">:</td><td><div></div></td></tr><tr><td style="font-weight:bold;vertical-align:top;">expires</td><td style="vertical-align:top;">:</td><td><div></div></td></tr><tr><td style="font-weight:bold;vertical-align:top;">httponly</td><td style="vertical-align:top;">:</td><td><div></div></td></tr><tr><td style="font-weight:bold;vertical-align:top;">max-age</td><td style="vertical-align:top;">:</td><td><div></div></td></tr><tr><td style="font-weight:bold;vertical-align:top;">path</td><td style="vertical-align:top;">:</td><td><div></div></td></tr><tr><td style="font-weight:bold;vertical-align:top;">secure</td><td style="vertical-align:top;">:</td><td><div></div></td></tr><tr><td style="font-weight:bold;vertical-align:top;">version</td><td style="vertical-align:top;">:</td><td><div></div></td></tr></table></div></td></tr><tr><td style="font-weight:bold;vertical-align:top;">session_id_ver1</td><td style="vertical-align:top;">:</td><td><div>127.0.0.1-5b5055f4-81a9-48ae-b7b6-33b9f9bcc528<table><tr><td style="font-weight:bold;vertical-align:top;">comment</td><td style="vertical-align:top;">:</td><td><div></div></td></tr><tr><td style="font-weight:bold;vertical-align:top;">domain</td><td style="vertical-align:top;">:</td><td><div></div></td></tr><tr><td style="font-weight:bold;vertical-align:top;">expires</td><td style="vertical-align:top;">:</td><td><div></div></td></tr><tr><td style="font-weight:bold;vertical-align:top;">httponly</td><td style="vertical-align:top;">:</td><td><div></div></td></tr><tr><td style="font-weight:bold;vertical-align:top;">max-age</td><td style="vertical-align:top;">:</td><td><div></div></td></tr><tr><td style="font-weight:bold;vertical-align:top;">path</td><td style="vertical-align:top;">:</td><td><div></div></td></tr><tr><td style="font-weight:bold;vertical-align:top;">secure</td><td style="vertical-align:top;">:</td><td><div></div></td></tr><tr><td style="font-weight:bold;vertical-align:top;">version</td><td style="vertical-align:top;">:</td><td><div></div></td></tr></table></div></td></tr><tr><td style="font-weight:bold;vertical-align:top;">session_id_ver3</td><td style="vertical-align:top;">:</td><td><div>127.0.0.1-15ba73a2-0008-43f7-917a-f83c2b8ee1e9<table><tr><td style="font-weight:bold;vertical-align:top;">comment</td><td style="vertical-align:top;">:</td><td><div></div></td></tr><tr><td style="font-weight:bold;vertical-align:top;">domain</td><td style="vertical-align:top;">:</td><td><div></div></td></tr><tr><td style="font-weight:bold;vertical-align:top;">expires</td><td style="vertical-align:top;">:</td><td><div></div></td></tr><tr><td style="font-weight:bold;vertical-align:top;">httponly</td><td style="vertical-align:top;">:</td><td><div></div></td></tr><tr><td style="font-weight:bold;vertical-align:top;">max-age</td><td style="vertical-align:top;">:</td><td><div></div></td></tr><tr><td style="font-weight:bold;vertical-align:top;">path</td><td style="vertical-align:top;">:</td><td><div></div></td></tr><tr><td style="font-weight:bold;vertical-align:top;">secure</td><td style="vertical-align:top;">:</td><td><div></div></td></tr><tr><td style="font-weight:bold;vertical-align:top;">version</td><td style="vertical-align:top;">:</td><td><div></div></td></tr></table></div></td></tr><tr><td style="font-weight:bold;vertical-align:top;">session_id_welcome</td><td style="vertical-align:top;">:</td><td><div>127.0.0.1-e5fa5123-c068-44a7-9777-dbdaf3fce577<table><tr><td style="font-weight:bold;vertical-align:top;">comment</td><td style="vertical-align:top;">:</td><td><div></div></td></tr><tr><td style="font-weight:bold;vertical-align:top;">domain</td><td style="vertical-align:top;">:</td><td><div></div></td></tr><tr><td style="font-weight:bold;vertical-align:top;">expires</td><td style="vertical-align:top;">:</td><td><div></div></td></tr><tr><td style="font-weight:bold;vertical-align:top;">httponly</td><td style="vertical-align:top;">:</td><td><div></div></td></tr><tr><td style="font-weight:bold;vertical-align:top;">max-age</td><td style="vertical-align:top;">:</td><td><div></div></td></tr><tr><td style="font-weight:bold;vertical-align:top;">path</td><td style="vertical-align:top;">:</td><td><div></div></td></tr><tr><td style="font-weight:bold;vertical-align:top;">secure</td><td style="vertical-align:top;">:</td><td><div></div></td></tr><tr><td style="font-weight:bold;vertical-align:top;">version</td><td style="vertical-align:top;">:</td><td><div></div></td></tr></table></div></td></tr></table></div></td></tr><tr><td style="font-weight:bold;vertical-align:top;">env</td><td style="vertical-align:top;">:</td><td><div><table><tr><td style="font-weight:bold;vertical-align:top;">HTTP_ACCEPT</td><td style="vertical-align:top;">:</td><td><div>text/html,application/xhtml+xml,application/xml;q=0.9,image/webp,*/*;q=0.8</div></td></tr><tr><td style="font-weight:bold;vertical-align:top;">HTTP_ACCEPT_ENCODING</td><td style="vertical-align:top;">:</td><td><div>gzip,deflate,sdch</div></td></tr><tr><td style="font-weight:bold;vertical-align:top;">HTTP_ACCEPT_LANGUAGE</td><td style="vertical-align:top;">:</td><td><div>en-US,en;q=0.8</div></td></tr><tr><td style="font-weight:bold;vertical-align:top;">HTTP_CACHE_CONTROL</td><td style="vertical-align:top;">:</td><td><div>max-age=0</div></td></tr><tr><td style="font-weight:bold;vertical-align:top;">HTTP_CONNECTION</td><td style="vertical-align:top;">:</td><td><div>keep-alive</div></td></tr><tr><td style="font-weight:bold;vertical-align:top;">HTTP_COOKIE</td><td style="vertical-align:top;">:</td><td><div>session_id_geodrop=127.0.0.1-f28de893-f122-4a2d-8f8f-a6ec2e6c2567; session_id_hw2=127.0.0.1-fbb55e86-72d7-423d-b1d1-65f2cf0f7598; session_id_appfirst=127.0.0.1-b42d6594-daa3-4203-9341-b10168722834; session_id_welcome=127.0.0.1-e5fa5123-c068-44a7-9777-dbdaf3fce577; session_id_rass21=127.0.0.1-db8b1edc-b4d4-460a-8c73-74ebcf695899; session_id_rass22=127.0.0.1-edb042d4-9846-4600-9aa9-35a01ac67be7; session_id_rass23=127.0.0.1-f790322a-d104-4a35-b74c-47c34a6bf205; session_id_ver1=127.0.0.1-5b5055f4-81a9-48ae-b7b6-33b9f9bcc528; session_id_rass24=127.0.0.1-1d03302c-b2f9-440b-ac4e-6ccc7050a91c; session_id_rass25=127.0.0.1-7cf7135c-faa7-4f36-acee-dd70ae0dd01c; session_id_ver3=127.0.0.1-15ba73a2-0008-43f7-917a-f83c2b8ee1e9; session_id_thegarage=127.0.0.1-ab3594e8-5727-4804-978b-46276fcec329; session_id_admin=127.0.0.1-738b084a-a090-4584-8eff-af2c98603399</div></td></tr><tr><td style="font-weight:bold;vertical-align:top;">HTTP_HOST</td><td style="vertical-align:top;">:</td><td><div>127.0.0.1:8000</div></td></tr><tr><td style="font-weight:bold;vertical-align:top;">HTTP_REFERER</td><td style="vertical-align:top;">:</td><td><div>http://127.0.0.1:8000/thegarage/default/available</div></td></tr><tr><td style="font-weight:bold;vertical-align:top;">HTTP_USER_AGENT</td><td style="vertical-align:top;">:</td><td><div>Mozilla/5.0 (Windows NT 6.1; WOW64) AppleWebKit/537.36 (KHTML, like Gecko) Chrome/30.0.1599.101 Safari/537.36</div></td></tr><tr><td style="font-weight:bold;vertical-align:top;">PATH_INFO</td><td style="vertical-align:top;">:</td><td><div>/thegarage/default/Borrowed</div></td></tr><tr><td style="font-weight:bold;vertical-align:top;">QUERY_STRING</td><td style="vertical-align:top;">:</td><td><div></div></td></tr><tr><td style="font-weight:bold;vertical-align:top;">REMOTE_ADDR</td><td style="vertical-align:top;">:</td><td><div>127.0.0.1</div></td></tr><tr><td style="font-weight:bold;vertical-align:top;">REMOTE_PORT</td><td style="vertical-align:top;">:</td><td><div>60616</div></td></tr><tr><td style="font-weight:bold;vertical-align:top;">REQUEST_METHOD</td><td style="vertical-align:top;">:</td><td><div>GET</div></td></tr><tr><td style="font-weight:bold;vertical-align:top;">SCRIPT_NAME</td><td style="vertical-align:top;">:</td><td><div></div></td></tr><tr><td style="font-weight:bold;vertical-align:top;">SERVER_NAME</td><td style="vertical-align:top;">:</td><td><div>Aguilar-PC</div></td></tr><tr><td style="font-weight:bold;vertical-align:top;">SERVER_PORT</td><td style="vertical-align:top;">:</td><td><div>8000</div></td></tr><tr><td style="font-weight:bold;vertical-align:top;">SERVER_PROTOCOL</td><td style="vertical-align:top;">:</td><td><div>HTTP/1.1</div></td></tr><tr><td style="font-weight:bold;vertical-align:top;">SERVER_SOFTWARE</td><td style="vertical-align:top;">:</td><td><div>Rocket 1.2.6</div></td></tr><tr><td style="font-weight:bold;vertical-align:top;">app_folders</td><td style="vertical-align:top;">:</td><td><div>set([&#x27;C:\\\\Users\\\\Aguilar\\\\Documents\\\\web2py\\\\applications\\\\ver1\\\\&#x27;, &#x27;C:\\\\Users\\\\Aguilar\\\\Documents\\\\web2py\\\\applications\\\\thegarage\\\\&#x27;, &#x27;C:\\\\Users\\\\Aguilar\\\\Documents\\\\web2py\\\\applications\\\\welcome\\\\&#x27;, &#x27;C:\\\\Users\\\\Aguilar\\\\Documents\\\\web2py\\\\applications\\\\Rass22\\\\&#x27;, &#x27;C:\\\\Users\\\\Aguilar\\\\Documents\\\\web2py\\\\applications\\\\ver3\\\\&#x27;, &#x27;C:\\\\Users\\\\Aguilar\\\\Documents\\\\web2py\\\\applications\\\\Rass25\\\\&#x27;, &#x27;C:\\\\Users\\\\Aguilar\\\\Documents\\\\web2py\\\\applications\\\\Rass24\\\\&#x27;, &#x27;C:\\\\Users\\\\Aguilar\\\\Documents\\\\web2py\\\\applications\\\\HW2\\\\&#x27;, &#x27;C:\\\\Users\\\\Aguilar\\\\Documents\\\\web2py\\\\applications\\\\Rass23\\\\&#x27;, &#x27;C:\\\\Users\\\\Aguilar\\\\Documents\\\\web2py\\\\applications\\\\Rass21\\\\&#x27;, &#x27;C:\\\\Users\\\\Aguilar\\\\Documents\\\\web2py\\\\applications\\\\admin\\\\&#x27;, &#x27;C:\\\\Users\\\\Aguilar\\\\Documents\\\\web2py\\\\applications\\\\GeoDrop\\\\&#x27;, &#x27;C:\\\\Users\\\\Aguilar\\\\Documents\\\\web2py\\\\applications\\\\appfirst\\\\&#x27;])</div></td></tr><tr><td style="font-weight:bold;vertical-align:top;">applications_parent</td><td style="vertical-align:top;">:</td><td><div>C:\\Users\\Aguilar\\Documents\\web2py</div></td></tr><tr><td style="font-weight:bold;vertical-align:top;">cmd_args</td><td style="vertical-align:top;">:</td><td><div><table></table></div></td></tr><tr><td style="font-weight:bold;vertical-align:top;">cmd_options</td><td style="vertical-align:top;">:</td><td><div>&lt;Values at 0x2451d28: {&#x27;verbose&#x27;: False, &#x27;ip&#x27;: &#x27;127.0.0.1&#x27;, &#x27;debuglevel&#x27;: 30, &#x27;with_scheduler&#x27;: False, &#x27;ips&#x27;: [&#x27;fe80::2476:433:3f57:fefb%11&#x27;, &#x27;192.168.1.4&#x27;, &#x27;2001:0:9d38:6ab8:2476:433:3f57:fefb&#x27;, &#x27;fe80::4488:9deb:c81d:f62f%12&#x27;], &#x27;shutdown_timeout&#x27;: 5, &#x27;taskbar&#x27;: False, &#x27;with_coverage&#x27;: False, &#x27;port&#x27;: 8000, &#x27;maxthreads&#x27;: None, &#x27;softcron&#x27;: False, &#x27;server_name&#x27;: &#x27;Aguilar-PC&#x27;, &#x27;bpython&#x27;: False, &#x27;nogui&#x27;: False, &#x27;pid_filename&#x27;: &#x27;httpserver.pid&#x27;, &#x27;extcron&#x27;: False, &#x27;runcron&#x27;: False, &#x27;run_system_tests&#x27;: False, &#x27;test&#x27;: None, &#x27;folder&#x27;: &#x27;C:\\\\Users\\\\Aguilar\\\\Documents\\\\web2py&#x27;, &#x27;config&#x27;: &#x27;&#x27;, &#x27;import_models&#x27;: False, &#x27;winservice&#x27;: &#x27;&#x27;, &#x27;shell&#x27;: None, &#x27;run&#x27;: &#x27;&#x27;, &#x27;log_filename&#x27;: &#x27;httpserver.log&#x27;, &#x27;profiler_dir&#x27;: None, &#x27;args&#x27;: [&#x27;&#x27;], &#x27;socket_timeout&#x27;: 5, &#x27;ssl_ca_certificate&#x27;: None, &#x27;scheduler&#x27;: None, &#x27;interfaces&#x27;: None, &#x27;ssl_private_key&#x27;: &#x27;&#x27;, &#x27;scheduler_groups&#x27;: None, &#x27;password&#x27;: &#x27;&lt;ask&gt;&#x27;, &#x27;request_queue_size&#x27;: 5, &#x27;ssl_certificate&#x27;: &#x27;&#x27;, &#x27;cronjob&#x27;: False, &#x27;numthreads&#x27;: None, &#x27;quiet&#x27;: False, &#x27;minthreads&#x27;: None, &#x27;timeout&#x27;: 10, &#x27;plain&#x27;: False, &#x27;nobanner&#x27;: False}&gt;</div></td></tr><tr><td style="font-weight:bold;vertical-align:top;">db_sessions</td><td style="vertical-align:top;">:</td><td><div>set([])</div></td></tr><tr><td style="font-weight:bold;vertical-align:top;">debugging</td><td style="vertical-align:top;">:</td><td><div>True</div></td></tr><tr><td style="font-weight:bold;vertical-align:top;">gluon_parent</td><td style="vertical-align:top;">:</td><td><div>C:\\Users\\Aguilar\\Documents\\web2py</div></td></tr><tr><td style="font-weight:bold;vertical-align:top;">http_accept</td><td style="vertical-align:top;">:</td><td><div>text/html,application/xhtml+xml,application/xml;q=0.9,image/webp,*/*;q=0.8</div></td></tr><tr><td style="font-weight:bold;vertical-align:top;">http_accept_encoding</td><td style="vertical-align:top;">:</td><td><div>gzip,deflate,sdch</div></td></tr><tr><td style="font-weight:bold;vertical-align:top;">http_accept_language</td><td style="vertical-align:top;">:</td><td><div>en-US,en;q=0.8</div></td></tr><tr><td style="font-weight:bold;vertical-align:top;">http_cache_control</td><td style="vertical-align:top;">:</td><td><div>max-age=0</div></td></tr><tr><td style="font-weight:bold;vertical-align:top;">http_connection</td><td style="vertical-align:top;">:</td><td><div>keep-alive</div></td></tr><tr><td style="font-weight:bold;vertical-align:top;">http_cookie</td><td style="vertical-align:top;">:</td><td><div>session_id_geodrop=127.0.0.1-f28de893-f122-4a2d-8f8f-a6ec2e6c2567; session_id_hw2=127.0.0.1-fbb55e86-72d7-423d-b1d1-65f2cf0f7598; session_id_appfirst=127.0.0.1-b42d6594-daa3-4203-9341-b10168722834; session_id_welcome=127.0.0.1-e5fa5123-c068-44a7-9777-dbdaf3fce577; session_id_rass21=127.0.0.1-db8b1edc-b4d4-460a-8c73-74ebcf695899; session_id_rass22=127.0.0.1-edb042d4-9846-4600-9aa9-35a01ac67be7; session_id_rass23=127.0.0.1-f790322a-d104-4a35-b74c-47c34a6bf205; session_id_ver1=127.0.0.1-5b5055f4-81a9-48ae-b7b6-33b9f9bcc528; session_id_rass24=127.0.0.1-1d03302c-b2f9-440b-ac4e-6ccc7050a91c; session_id_rass25=127.0.0.1-7cf7135c-faa7-4f36-acee-dd70ae0dd01c; session_id_ver3=127.0.0.1-15ba73a2-0008-43f7-917a-f83c2b8ee1e9; session_id_thegarage=127.0.0.1-ab3594e8-5727-4804-978b-46276fcec329; session_id_admin=127.0.0.1-738b084a-a090-4584-8eff-af2c98603399</div></td></tr><tr><td style="font-weight:bold;vertical-align:top;">http_host</td><td style="vertical-align:top;">:</td><td><div>127.0.0.1:8000</div></td></tr><tr><td style="font-weight:bold;vertical-align:top;">http_referer</td><td style="vertical-align:top;">:</td><td><div>http://127.0.0.1:8000/thegarage/default/available</div></td></tr><tr><td style="font-weight:bold;vertical-align:top;">http_user_agent</td><td style="vertical-align:top;">:</td><td><div>Mozilla/5.0 (Windows NT 6.1; WOW64) AppleWebKit/537.36 (KHTML, like Gecko) Chrome/30.0.1599.101 Safari/537.36</div></td></tr><tr><td style="font-weight:bold;vertical-align:top;">is_jython</td><td style="vertical-align:top;">:</td><td><div>False</div></td></tr><tr><td style="font-weight:bold;vertical-align:top;">is_pypy</td><td style="vertical-align:top;">:</td><td><div>False</div></td></tr><tr><td style="font-weight:bold;vertical-align:top;">is_source</td><td style="vertical-align:top;">:</td><td><div>False</div></td></tr><tr><td style="font-weight:bold;vertical-align:top;">local_hosts</td><td style="vertical-align:top;">:</td><td><div><table><tr><td><div>2001:0:9d38:6ab8:2476:433:3f57:fefb</div></td></tr><tr><td><div>::ffff:127.0.0.1</div></td></tr><tr><td><div>::1</div></td></tr><tr><td><div>192.168.1.4</div></td></tr><tr><td><div>fe80::4488:9deb:c81d:f62f%12</div></td></tr><tr><td><div>fe80::2476:433:3f57:fefb%11</div></td></tr><tr><td><div>Aguilar-PC</div></td></tr><tr><td><div>127.0.0.1</div></td></tr></table></div></td></tr><tr><td style="font-weight:bold;vertical-align:top;">path_info</td><td style="vertical-align:top;">:</td><td><div>/thegarage/default/Borrowed</div></td></tr><tr><td style="font-weight:bold;vertical-align:top;">query_string</td><td style="vertical-align:top;">:</td><td><div></div></td></tr><tr><td style="font-weight:bold;vertical-align:top;">remote_addr</td><td style="vertical-align:top;">:</td><td><div>127.0.0.1</div></td></tr><tr><td style="font-weight:bold;vertical-align:top;">remote_port</td><td style="vertical-align:top;">:</td><td><div>60616</div></td></tr><tr><td style="font-weight:bold;vertical-align:top;">request_method</td><td style="vertical-align:top;">:</td><td><div>GET</div></td></tr><tr><td style="font-weight:bold;vertical-align:top;">request_uri</td><td style="vertical-align:top;">:</td><td><div>/thegarage/default/Borrowed</div></td></tr><tr><td style="font-weight:bold;vertical-align:top;">script_name</td><td style="vertical-align:top;">:</td><td><div></div></td></tr><tr><td style="font-weight:bold;vertical-align:top;">server_name</td><td style="vertical-align:top;">:</td><td><div>Aguilar-PC</div></td></tr><tr><td style="font-weight:bold;vertical-align:top;">server_port</td><td style="vertical-align:top;">:</td><td><div>8000</div></td></tr><tr><td style="font-weight:bold;vertical-align:top;">server_protocol</td><td style="vertical-align:top;">:</td><td><div>HTTP/1.1</div></td></tr><tr><td style="font-weight:bold;vertical-align:top;">server_software</td><td style="vertical-align:top;">:</td><td><div>Rocket 1.2.6</div></td></tr><tr><td style="font-weight:bold;vertical-align:top;">web2py_path</td><td style="vertical-align:top;">:</td><td><div>C:\\Users\\Aguilar\\Documents\\web2py</div></td></tr><tr><td style="font-weight:bold;vertical-align:top;">web2py_version</td><td style="vertical-align:top;">:</td><td><div>2.6.4-stable+timestamp.2013.09.22.17.43.26</div></td></tr><tr><td style="font-weight:bold;vertical-align:top;">wsgi.errors</td><td style="vertical-align:top;">:</td><td><div>&lt;open file &#x27;&lt;stderr&gt;&#x27;, mode &#x27;w&#x27; at 0x006350D0&gt;</div></td></tr><tr><td style="font-weight:bold;vertical-align:top;">wsgi.file_wrapper</td><td style="vertical-align:top;">:</td><td><div>&lt;class wsgiref.util.FileWrapper at 0x032D71B8&gt;</div></td></tr><tr><td style="font-weight:bold;vertical-align:top;">wsgi.input</td><td style="vertical-align:top;">:</td><td><div>&lt;socket._fileobject object at 0x07EF7DF0&gt;</div></td></tr><tr><td style="font-weight:bold;vertical-align:top;">wsgi.multiprocess</td><td style="vertical-align:top;">:</td><td><div>False</div></td></tr><tr><td style="font-weight:bold;vertical-align:top;">wsgi.multithread</td><td style="vertical-align:top;">:</td><td><div>True</div></td></tr><tr><td style="font-weight:bold;vertical-align:top;">wsgi.run_once</td><td style="vertical-align:top;">:</td><td><div>False</div></td></tr><tr><td style="font-weight:bold;vertical-align:top;">wsgi.url_scheme</td><td style="vertical-align:top;">:</td><td><div>http</div></td></tr><tr><td style="font-weight:bold;vertical-align:top;">wsgi.version</td><td style="vertical-align:top;">:</td><td><div><table><tr><td><div>1</div></td></tr><tr><td><div>0</div></td></tr></table></div></td></tr><tr><td style="font-weight:bold;vertical-align:top;">wsgi_errors</td><td style="vertical-align:top;">:</td><td><div>&lt;open file &#x27;&lt;stderr&gt;&#x27;, mode &#x27;w&#x27; at 0x006350D0&gt;</div></td></tr><tr><td style="font-weight:bold;vertical-align:top;">wsgi_file_wrapper</td><td style="vertical-align:top;">:</td><td><div>&lt;class wsgiref.util.FileWrapper at 0x032D71B8&gt;</div></td></tr><tr><td style="font-weight:bold;vertical-align:top;">wsgi_input</td><td style="vertical-align:top;">:</td><td><div>&lt;socket._fileobject object at 0x07EF7DF0&gt;</div></td></tr><tr><td style="font-weight:bold;vertical-align:top;">wsgi_multiprocess</td><td style="vertical-align:top;">:</td><td><div>False</div></td></tr><tr><td style="font-weight:bold;vertical-align:top;">wsgi_multithread</td><td style="vertical-align:top;">:</td><td><div>True</div></td></tr><tr><td style="font-weight:bold;vertical-align:top;">wsgi_run_once</td><td style="vertical-align:top;">:</td><td><div>False</div></td></tr><tr><td style="font-weight:bold;vertical-align:top;">wsgi_url_scheme</td><td style="vertical-align:top;">:</td><td><div>http</div></td></tr><tr><td style="font-weight:bold;vertical-align:top;">wsgi_version</td><td style="vertical-align:top;">:</td><td><div><table><tr><td><div>1</div></td></tr><tr><td><div>0</div></td></tr></table></div></td></tr></table></div></td></tr><tr><td style="font-weight:bold;vertical-align:top;">extension</td><td style="vertical-align:top;">:</td><td><div>html</div></td></tr><tr><td style="font-weight:bold;vertical-align:top;">folder</td><td style="vertical-align:top;">:</td><td><div>C:\\Users\\Aguilar\\Documents\\web2py\\applications\\thegarage\\</div></td></tr><tr><td style="font-weight:bold;vertical-align:top;">function</td><td style="vertical-align:top;">:</td><td><div>Borrowed</div></td></tr><tr><td style="font-weight:bold;vertical-align:top;">global_settings</td><td style="vertical-align:top;">:</td><td><div><table><tr><td style="font-weight:bold;vertical-align:top;">app_folders</td><td style="vertical-align:top;">:</td><td><div>set([&#x27;C:\\\\Users\\\\Aguilar\\\\Documents\\\\web2py\\\\applications\\\\ver1\\\\&#x27;, &#x27;C:\\\\Users\\\\Aguilar\\\\Documents\\\\web2py\\\\applications\\\\thegarage\\\\&#x27;, &#x27;C:\\\\Users\\\\Aguilar\\\\Documents\\\\web2py\\\\applications\\\\welcome\\\\&#x27;, &#x27;C:\\\\Users\\\\Aguilar\\\\Documents\\\\web2py\\\\applications\\\\Rass22\\\\&#x27;, &#x27;C:\\\\Users\\\\Aguilar\\\\Documents\\\\web2py\\\\applications\\\\ver3\\\\&#x27;, &#x27;C:\\\\Users\\\\Aguilar\\\\Documents\\\\web2py\\\\applications\\\\Rass25\\\\&#x27;, &#x27;C:\\\\Users\\\\Aguilar\\\\Documents\\\\web2py\\\\applications\\\\Rass24\\\\&#x27;, &#x27;C:\\\\Users\\\\Aguilar\\\\Documents\\\\web2py\\\\applications\\\\HW2\\\\&#x27;, &#x27;C:\\\\Users\\\\Aguilar\\\\Documents\\\\web2py\\\\applications\\\\Rass23\\\\&#x27;, &#x27;C:\\\\Users\\\\Aguilar\\\\Documents\\\\web2py\\\\applications\\\\Rass21\\\\&#x27;, &#x27;C:\\\\Users\\\\Aguilar\\\\Documents\\\\web2py\\\\applications\\\\admin\\\\&#x27;, &#x27;C:\\\\Users\\\\Aguilar\\\\Documents\\\\web2py\\\\applications\\\\GeoDrop\\\\&#x27;, &#x27;C:\\\\Users\\\\Aguilar\\\\Documents\\\\web2py\\\\applications\\\\appfirst\\\\&#x27;])</div></td></tr><tr><td style="font-weight:bold;vertical-align:top;">applications_parent</td><td style="vertical-align:top;">:</td><td><div>C:\\Users\\Aguilar\\Documents\\web2py</div></td></tr><tr><td style="font-weight:bold;vertical-align:top;">cmd_args</td><td style="vertical-align:top;">:</td><td><div><table></table></div></td></tr><tr><td style="font-weight:bold;vertical-align:top;">cmd_options</td><td style="vertical-align:top;">:</td><td><div>&lt;Values at 0x2451d28: {&#x27;verbose&#x27;: False, &#x27;ip&#x27;: &#x27;127.0.0.1&#x27;, &#x27;debuglevel&#x27;: 30, &#x27;with_scheduler&#x27;: False, &#x27;ips&#x27;: [&#x27;fe80::2476:433:3f57:fefb%11&#x27;, &#x27;192.168.1.4&#x27;, &#x27;2001:0:9d38:6ab8:2476:433:3f57:fefb&#x27;, &#x27;fe80::4488:9deb:c81d:f62f%12&#x27;], &#x27;shutdown_timeout&#x27;: 5, &#x27;taskbar&#x27;: False, &#x27;with_coverage&#x27;: False, &#x27;port&#x27;: 8000, &#x27;maxthreads&#x27;: None, &#x27;softcron&#x27;: False, &#x27;server_name&#x27;: &#x27;Aguilar-PC&#x27;, &#x27;bpython&#x27;: False, &#x27;nogui&#x27;: False, &#x27;pid_filename&#x27;: &#x27;httpserver.pid&#x27;, &#x27;extcron&#x27;: False, &#x27;runcron&#x27;: False, &#x27;run_system_tests&#x27;: False, &#x27;test&#x27;: None, &#x27;folder&#x27;: &#x27;C:\\\\Users\\\\Aguilar\\\\Documents\\\\web2py&#x27;, &#x27;config&#x27;: &#x27;&#x27;, &#x27;import_models&#x27;: False, &#x27;winservice&#x27;: &#x27;&#x27;, &#x27;shell&#x27;: None, &#x27;run&#x27;: &#x27;&#x27;, &#x27;log_filename&#x27;: &#x27;httpserver.log&#x27;, &#x27;profiler_dir&#x27;: None, &#x27;args&#x27;: [&#x27;&#x27;], &#x27;socket_timeout&#x27;: 5, &#x27;ssl_ca_certificate&#x27;: None, &#x27;scheduler&#x27;: None, &#x27;interfaces&#x27;: None, &#x27;ssl_private_key&#x27;: &#x27;&#x27;, &#x27;scheduler_groups&#x27;: None, &#x27;password&#x27;: &#x27;&lt;ask&gt;&#x27;, &#x27;request_queue_size&#x27;: 5, &#x27;ssl_certificate&#x27;: &#x27;&#x27;, &#x27;cronjob&#x27;: False, &#x27;numthreads&#x27;: None, &#x27;quiet&#x27;: False, &#x27;minthreads&#x27;: None, &#x27;timeout&#x27;: 10, &#x27;plain&#x27;: False, &#x27;nobanner&#x27;: False}&gt;</div></td></tr><tr><td style="font-weight:bold;vertical-align:top;">db_sessions</td><td style="vertical-align:top;">:</td><td><div>set([])</div></td></tr><tr><td style="font-weight:bold;vertical-align:top;">debugging</td><td style="vertical-align:top;">:</td><td><div>True</div></td></tr><tr><td style="font-weight:bold;vertical-align:top;">gluon_parent</td><td style="vertical-align:top;">:</td><td><div>C:\\Users\\Aguilar\\Documents\\web2py</div></td></tr><tr><td style="font-weight:bold;vertical-align:top;">is_jython</td><td style="vertical-align:top;">:</td><td><div>False</div></td></tr><tr><td style="font-weight:bold;vertical-align:top;">is_pypy</td><td style="vertical-align:top;">:</td><td><div>False</div></td></tr><tr><td style="font-weight:bold;vertical-align:top;">is_source</td><td style="vertical-align:top;">:</td><td><div>False</div></td></tr><tr><td style="font-weight:bold;vertical-align:top;">local_hosts</td><td style="vertical-align:top;">:</td><td><div><table><tr><td><div>2001:0:9d38:6ab8:2476:433:3f57:fefb</div></td></tr><tr><td><div>::ffff:127.0.0.1</div></td></tr><tr><td><div>::1</div></td></tr><tr><td><div>192.168.1.4</div></td></tr><tr><td><div>fe80::4488:9deb:c81d:f62f%12</div></td></tr><tr><td><div>fe80::2476:433:3f57:fefb%11</div></td></tr><tr><td><div>Aguilar-PC</div></td></tr><tr><td><div>127.0.0.1</div></td></tr></table></div></td></tr><tr><td style="font-weight:bold;vertical-align:top;">web2py_version</td><td style="vertical-align:top;">:</td><td><div>2.6.4-stable+timestamp.2013.09.22.17.43.26</div></td></tr></table></div></td></tr><tr><td style="font-weight:bold;vertical-align:top;">is_https</td><td style="vertical-align:top;">:</td><td><div>False</div></td></tr><tr><td style="font-weight:bold;vertical-align:top;">is_local</td><td style="vertical-align:top;">:</td><td><div>True</div></td></tr><tr><td style="font-weight:bold;vertical-align:top;">is_restful</td><td style="vertical-align:top;">:</td><td><div>False</div></td></tr><tr><td style="font-weight:bold;vertical-align:top;">now</td><td style="vertical-align:top;">:</td><td><div>datetime.datetime(2013, 11, 5, 23, 57, 16, 663000)</div></td></tr><tr><td style="font-weight:bold;vertical-align:top;">raw_args</td><td style="vertical-align:top;">:</td><td><div></div></td></tr><tr><td style="font-weight:bold;vertical-align:top;">raw_extension</td><td style="vertical-align:top;">:</td><td><div>None</div></td></tr><tr><td style="font-weight:bold;vertical-align:top;">url</td><td style="vertical-align:top;">:</td><td><div>/thegarage/default/Borrowed</div></td></tr><tr><td style="font-weight:bold;vertical-align:top;">utcnow</td><td style="vertical-align:top;">:</td><td><div>datetime.datetime(2013, 11, 6, 7, 57, 16, 664000)</div></td></tr><tr><td style="font-weight:bold;vertical-align:top;">uuid</td><td style="vertical-align:top;">:</td><td><div>thegarage/127.0.0.1.2013-11-05.23-57-16.b30d4145-53a4-49d5-aacb-b13822626abe</div></td></tr><tr><td style="font-weight:bold;vertical-align:top;">wsgi</td><td style="vertical-align:top;">:</td><td><div>&lt;gluon.main.LazyWSGI object at 0x088CBF10&gt;</div></td></tr></table></div>'
tRp58
sS'frames'
p59
(lp60
(dp61
S'file'
p62
S'C:\\home\\mdipierro\\make_web2py\\web2py\\gluon\\restricted.py'
p63
sS'dump'
p64
(dp65
sS'lnum'
p66
I217
sS'lines'
p67
(dp68
sS'call'
p69
S'(code="# coding: utf8\\nfrom datetime import datetime\\n\\n\\nd...xt\'),\\n            Field(\'tag\', \'string\'),\\n\\n    )\\n", environment={\'A\': <class \'gluon.html.A\'>, \'ANY_OF\': <class \'gluon.validators.ANY_OF\'>, \'Auth\': <class \'gluon.tools.Auth\'>, \'B\': <class \'gluon.html.B\'>, \'BEAUTIFY\': <class \'gluon.html.BEAUTIFY\'>, \'BODY\': <class \'gluon.html.BODY\'>, \'BR\': <class \'gluon.html.BR\'>, \'BUTTON\': <class \'gluon.html.BUTTON\'>, \'CAT\': <class \'gluon.html.CAT\'>, \'CENTER\': <class \'gluon.html.CENTER\'>, ...}, layer=r\'C:\\Users\\Aguilar\\Documents\\web2py\\applications\\thegarage\\models\\tables.py\')'
p70
sS'func'
p71
S'restricted'
p72
sa(dp73
g62
S'C:\\Users\\Aguilar\\Documents\\web2py\\applications\\thegarage\\models\\tables.py'
p74
sg64
(dp75
sg66
I9
sg67
(dp76
I4
S''
sI5
S"db.define_table('person',"
p77
sI6
S"                Field('name', 'string'),"
p78
sI7
S"                Field('email', 'string', requires=IS_EMAIL()),"
p79
sI8
S"                Field('a_id', db.auth_user, default=auth.user_id), #a_id is the auth user, will be used in items table"
p80
sI9
S"                Field('rep', 'float', defualt=10.00),"
p81
sI10
S''
sI11
S'                )'
p82
sI12
S''
sI13
S"db.define_table('items',"
p83
ssg69
S'()'
p84
sg71
S'<module>'
p85
sasS'pyver'
p86
S'Python 2.7: C:\\Users\\Aguilar\\Documents\\web2py\\web2py.exe (prefix: C:\\Users\\Aguilar\\Documents\\web2py)'
p87
sS'session'
p88
g57
(S's\x1a\x00\x00\x00<div><table></table></div>'
tRp89
sS'etype'
p90
S"<type 'exceptions.TypeError'>"
p91
sS'date'
p92
S'Tue Nov 05 23:57:16 2013'
p93
sS'response'
p94
g57
(S's\x930\x00\x00<div><table><tr><td style="font-weight:bold;vertical-align:top;">body</td><td style="vertical-align:top;">:</td><td><div>&lt;cStringIO.StringO object at 0x07DD8B80&gt;</div></td></tr><tr><td style="font-weight:bold;vertical-align:top;">cookies</td><td style="vertical-align:top;">:</td><td><div><table><tr><td style="font-weight:bold;vertical-align:top;">session_id_thegarage</td><td style="vertical-align:top;">:</td><td><div>127.0.0.1-bbc43c05-cea7-4658-8bbb-3a6d7c2058a8<table><tr><td style="font-weight:bold;vertical-align:top;">comment</td><td style="vertical-align:top;">:</td><td><div></div></td></tr><tr><td style="font-weight:bold;vertical-align:top;">domain</td><td style="vertical-align:top;">:</td><td><div></div></td></tr><tr><td style="font-weight:bold;vertical-align:top;">expires</td><td style="vertical-align:top;">:</td><td><div></div></td></tr><tr><td style="font-weight:bold;vertical-align:top;">httponly</td><td style="vertical-align:top;">:</td><td><div></div></td></tr><tr><td style="font-weight:bold;vertical-align:top;">max-age</td><td style="vertical-align:top;">:</td><td><div></div></td></tr><tr><td style="font-weight:bold;vertical-align:top;">path</td><td style="vertical-align:top;">:</td><td><div>/</div></td></tr><tr><td style="font-weight:bold;vertical-align:top;">secure</td><td style="vertical-align:top;">:</td><td><div></div></td></tr><tr><td style="font-weight:bold;vertical-align:top;">version</td><td style="vertical-align:top;">:</td><td><div></div></td></tr></table></div></td></tr></table></div></td></tr><tr><td style="font-weight:bold;vertical-align:top;">delimiters</td><td style="vertical-align:top;">:</td><td><div><table><tr><td><div>{{</div></td></tr><tr><td><div>}}</div></td></tr></table></div></td></tr><tr><td style="font-weight:bold;vertical-align:top;">files</td><td style="vertical-align:top;">:</td><td><div><table></table></div></td></tr><tr><td style="font-weight:bold;vertical-align:top;">flash</td><td style="vertical-align:top;">:</td><td><div></div></td></tr><tr><td style="font-weight:bold;vertical-align:top;">generic_patterns</td><td style="vertical-align:top;">:</td><td><div><table><tr><td><div>*</div></td></tr></table></div></td></tr><tr><td style="font-weight:bold;vertical-align:top;">google_analytics_id</td><td style="vertical-align:top;">:</td><td><div>None</div></td></tr><tr><td style="font-weight:bold;vertical-align:top;">headers</td><td style="vertical-align:top;">:</td><td><div><table><tr><td style="font-weight:bold;vertical-align:top;">X-Powered-By</td><td style="vertical-align:top;">:</td><td><div>web2py</div></td></tr></table></div></td></tr><tr><td style="font-weight:bold;vertical-align:top;">logo</td><td style="vertical-align:top;">:</td><td><div><a class="brand" data-w2p_disable_with="default" href="/thegarage/default/index"><b>The Garage</b>&trade;&nbsp;</a></div></td></tr><tr><td style="font-weight:bold;vertical-align:top;">menu</td><td style="vertical-align:top;">:</td><td><div><table><tr><td><div><table><tr><td><div>Your Daddy.com</div></td></tr><tr><td><div>False</div></td></tr><tr><td><div>/thegarage/default/index</div></td></tr><tr><td><div><table></table></div></td></tr></table></div></td></tr><tr><td><div><table><tr><td><div><span class="nav_button">Department</span></div></td></tr><tr><td><div>False</div></td></tr><tr><td><div>http://web2py.com</div></td></tr><tr><td><div><table><tr><td><div><table><tr><td><div>Books &amp; Audible</div></td></tr><tr><td><div>False</div></td></tr><tr><td><div>/admin/default/design/thegarage</div></td></tr><tr><td><div>[(&lt;lazyT &#x27;Controller&#x27;&gt;, False, &#x27;/admin/default/edit/thegarage/controllers/default.py&#x27;), (&lt;lazyT &#x27;View&#x27;&gt;, False, &#x27;/admin/default/edit/thegarage/views/default/Borrowed.html&#x27;), (&lt;lazyT &#x27;Layout&#x27;&gt;, False, &#x27;/admin/default/edit/thegarage/views/layout.html&#x27;), (&lt;lazyT &#x27;Stylesheet&#x27;&gt;, False, &#x27;/admin/default/edit/thegarage/static/css/web2py.css&#x27;), (&lt;lazyT &#x27;DB Model&#x27;&gt;, False, &#x27;/admin/default/edit/thegarage/models/db.py&#x27;), (&lt;lazyT &#x27;Menu Model&#x27;&gt;, False, &#x27;/admin/default/edit/thegarage/models/menu.py&#x27;), (&lt;lazyT &#x27;Database&#x27;&gt;, False, &#x27;/thegarage/appadmin/index&#x27;), (&lt;lazyT &#x27;Errors&#x27;&gt;, False, &#x27;/admin/default/errors/thegarage&#x27;), (&lt;lazyT &#x27;About&#x27;&gt;, False, &#x27;/admin/default/about/thegarage&#x27;)]</div></td></tr></table></div></td></tr><tr><td><div><table><tr><td><div>web2py.com</div></td></tr><tr><td><div>False</div></td></tr><tr><td><div>http://www.web2py.com</div></td></tr><tr><td><div>[(&lt;lazyT &#x27;Download&#x27;&gt;, False, &#x27;http://www.web2py.com/examples/default/download&#x27;), (&lt;lazyT &#x27;Support&#x27;&gt;, False, &#x27;http://www.web2py.com/examples/default/support&#x27;), (&lt;lazyT &#x27;Demo&#x27;&gt;, False, &#x27;http://web2py.com/demo_admin&#x27;), (&lt;lazyT &#x27;Quick Examples&#x27;&gt;, False, &#x27;http://web2py.com/examples/default/examples&#x27;), (&lt;lazyT &#x27;FAQ&#x27;&gt;, False, &#x27;http://web2py.com/AlterEgo&#x27;), (&lt;lazyT &#x27;Videos&#x27;&gt;, False, &#x27;http://www.web2py.com/examples/default/videos/&#x27;), (&lt;lazyT &#x27;Free Applications&#x27;&gt;, False, &#x27;http://web2py.com/appliances&#x27;), (&lt;lazyT &#x27;Plugins&#x27;&gt;, False, &#x27;http://web2py.com/plugins&#x27;), (&lt;lazyT &#x27;Layouts&#x27;&gt;, False, &#x27;http://web2py.com/layouts&#x27;), (&lt;lazyT &#x27;Recipes&#x27;&gt;, False, &#x27;http://web2pyslices.com/&#x27;), (&lt;lazyT &#x27;Semantic&#x27;&gt;, False, &#x27;http://web2py.com/semantic&#x27;)]</div></td></tr></table></div></td></tr><tr><td><div><table><tr><td><div>Documentation</div></td></tr><tr><td><div>False</div></td></tr><tr><td><div>http://www.web2py.com/book</div></td></tr><tr><td><div>[(&lt;lazyT &#x27;Preface&#x27;&gt;, False, &#x27;http://www.web2py.com/book/default/chapter/00&#x27;), (&lt;lazyT &#x27;Introduction&#x27;&gt;, False, &#x27;http://www.web2py.com/book/default/chapter/01&#x27;), (&lt;lazyT &#x27;Python&#x27;&gt;, False, &#x27;http://www.web2py.com/book/default/chapter/02&#x27;), (&lt;lazyT &#x27;Overview&#x27;&gt;, False, &#x27;http://www.web2py.com/book/default/chapter/03&#x27;), (&lt;lazyT &#x27;The Core&#x27;&gt;, False, &#x27;http://www.web2py.com/book/default/chapter/04&#x27;), (&lt;lazyT &#x27;The Views&#x27;&gt;, False, &#x27;http://www.web2py.com/book/default/chapter/05&#x27;), (&lt;lazyT &#x27;Database&#x27;&gt;, False, &#x27;http://www.web2py.com/book/default/chapter/06&#x27;), (&lt;lazyT &#x27;Forms and Validators&#x27;&gt;, False, &#x27;http://www.web2py.com/book/default/chapter/07&#x27;), (&lt;lazyT &#x27;Email and SMS&#x27;&gt;, False, &#x27;http://www.web2py.com/book/default/chapter/08&#x27;), (&lt;lazyT &#x27;Access Control&#x27;&gt;, False, &#x27;http://www.web2py.com/book/default/chapter/09&#x27;), (&lt;lazyT &#x27;Services&#x27;&gt;, False, &#x27;http://www.web2py.com/book/default/chapter/10&#x27;), (&lt;lazyT &#x27;Ajax Recipes&#x27;&gt;, False, &#x27;http://www.web2py.com/book/default/chapter/11&#x27;), (&lt;lazyT &#x27;Components and Plugins&#x27;&gt;, False, &#x27;http://www.web2py.com/book/default/chapter/12&#x27;), (&lt;lazyT &#x27;Deployment Recipes&#x27;&gt;, False, &#x27;http://www.web2py.com/book/default/chapter/13&#x27;), (&lt;lazyT &#x27;Other Recipes&#x27;&gt;, False, &#x27;http://www.web2py.com/book/default/chapter/14&#x27;), (&lt;lazyT &#x27;Buy this book&#x27;&gt;, False, &#x27;http://stores.lulu.com/web2py&#x27;)]</div></td></tr></table></div></td></tr><tr><td><div><table><tr><td><div>Community</div></td></tr><tr><td><div>False</div></td></tr><tr><td><div>None</div></td></tr><tr><td><div>[(&lt;lazyT &#x27;Groups&#x27;&gt;, False, &#x27;http://www.web2py.com/examples/default/usergroups&#x27;), (&lt;lazyT &#x27;Twitter&#x27;&gt;, False, &#x27;http://twitter.com/web2py&#x27;), (&lt;lazyT &#x27;Live Chat&#x27;&gt;, False, &#x27;http://webchat.freenode.net/?channels=web2py&#x27;)]</div></td></tr></table></div></td></tr><tr><td><div><table><tr><td><div>Plugins</div></td></tr><tr><td><div>False</div></td></tr><tr><td><div>None</div></td></tr><tr><td><div>[(&#x27;plugin_wiki&#x27;, False, &#x27;http://web2py.com/examples/default/download&#x27;), (&lt;lazyT &#x27;Other Plugins&#x27;&gt;, False, &#x27;http://web2py.com/plugins&#x27;), (&lt;lazyT &#x27;Layout Plugins&#x27;&gt;, False, &#x27;http://web2py.com/layouts&#x27;)]</div></td></tr></table></div></td></tr></table></div></td></tr></table></div></td></tr></table></div></td></tr><tr><td style="font-weight:bold;vertical-align:top;">meta</td><td style="vertical-align:top;">:</td><td><div><table><tr><td style="font-weight:bold;vertical-align:top;">author</td><td style="vertical-align:top;">:</td><td><div>Your Name &lt;you@example.com&gt;</div></td></tr><tr><td style="font-weight:bold;vertical-align:top;">description</td><td style="vertical-align:top;">:</td><td><div>a cool new app</div></td></tr><tr><td style="font-weight:bold;vertical-align:top;">generator</td><td style="vertical-align:top;">:</td><td><div>Web2py Web Framework</div></td></tr><tr><td style="font-weight:bold;vertical-align:top;">keywords</td><td style="vertical-align:top;">:</td><td><div>web2py, python, framework</div></td></tr></table></div></td></tr><tr><td style="font-weight:bold;vertical-align:top;">models_to_run</td><td style="vertical-align:top;">:</td><td><div><table><tr><td><div>^\\w+\\.py$</div></td></tr><tr><td><div>^default/\\w+\\.py$</div></td></tr><tr><td><div>^default/Borrowed/\\w+\\.py$</div></td></tr></table></div></td></tr><tr><td style="font-weight:bold;vertical-align:top;">postprocessing</td><td style="vertical-align:top;">:</td><td><div><table></table></div></td></tr><tr><td style="font-weight:bold;vertical-align:top;">session_client</td><td style="vertical-align:top;">:</td><td><div>127.0.0.1</div></td></tr><tr><td style="font-weight:bold;vertical-align:top;">session_cookie_compression_level</td><td style="vertical-align:top;">:</td><td><div>None</div></td></tr><tr><td style="font-weight:bold;vertical-align:top;">session_cookie_expires</td><td style="vertical-align:top;">:</td><td><div>None</div></td></tr><tr><td style="font-weight:bold;vertical-align:top;">session_cookie_key</td><td style="vertical-align:top;">:</td><td><div>None</div></td></tr><tr><td style="font-weight:bold;vertical-align:top;">session_data_name</td><td style="vertical-align:top;">:</td><td><div>session_data_thegarage</div></td></tr><tr><td style="font-weight:bold;vertical-align:top;">session_file</td><td style="vertical-align:top;">:</td><td><div>None</div></td></tr><tr><td style="font-weight:bold;vertical-align:top;">session_filename</td><td style="vertical-align:top;">:</td><td><div>C:\\Users\\Aguilar\\Documents\\web2py\\applications\\thegarage\\sessions\\127.0.0.1-bbc43c05-cea7-4658-8bbb-3a6d7c2058a8</div></td></tr><tr><td style="font-weight:bold;vertical-align:top;">session_hash</td><td style="vertical-align:top;">:</td><td><div>106f4c22ca06cc343e42b73a0d8492f6</div></td></tr><tr><td style="font-weight:bold;vertical-align:top;">session_id</td><td style="vertical-align:top;">:</td><td><div>127.0.0.1-bbc43c05-cea7-4658-8bbb-3a6d7c2058a8</div></td></tr><tr><td style="font-weight:bold;vertical-align:top;">session_id_name</td><td style="vertical-align:top;">:</td><td><div>session_id_thegarage</div></td></tr><tr><td style="font-weight:bold;vertical-align:top;">session_masterapp</td><td style="vertical-align:top;">:</td><td><div>thegarage</div></td></tr><tr><td style="font-weight:bold;vertical-align:top;">session_new</td><td style="vertical-align:top;">:</td><td><div>True</div></td></tr><tr><td style="font-weight:bold;vertical-align:top;">session_storage_type</td><td style="vertical-align:top;">:</td><td><div>file</div></td></tr><tr><td style="font-weight:bold;vertical-align:top;">status</td><td style="vertical-align:top;">:</td><td><div>200</div></td></tr><tr><td style="font-weight:bold;vertical-align:top;">subtitle</td><td style="vertical-align:top;">:</td><td><div></div></td></tr><tr><td style="font-weight:bold;vertical-align:top;">title</td><td style="vertical-align:top;">:</td><td><div>Thegarage</div></td></tr><tr><td style="font-weight:bold;vertical-align:top;">view</td><td style="vertical-align:top;">:</td><td><div>default/Borrowed.html</div></td></tr></table></div>'
tRp95
sS'locals'
p96
(dp97
S'Service'
p98
S"<class 'gluon.tools.Service'>"
p99
sS'OBJECT'
p100
S"<class 'gluon.html.OBJECT'>"
p101
sS'SQLDB'
p102
S"<class 'gluon.dal.DAL'>"
p103
sg88
S'<Storage {}>'
p104
sS'LINK'
p105
S"<class 'gluon.html.LINK'>"
p106
sS'BR'
p107
S"<class 'gluon.html.BR'>"
p108
sS'local_import'
p109
S'<function <lambda>>'
p110
sS'OPTGROUP'
p111
S"<class 'gluon.html.OPTGROUP'>"
p112
sS'LI'
p113
S"<class 'gluon.html.LI'>"
p114
sS'PRE'
p115
S"<class 'gluon.html.PRE'>"
p116
sS'IS_INT_IN_RANGE'
p117
S"<class 'gluon.validators.IS_INT_IN_RANGE'>"
p118
sS'IS_LOWER'
p119
S"<class 'gluon.validators.IS_LOWER'>"
p120
sS'IS_STRONG'
p121
S"<class 'gluon.validators.IS_STRONG'>"
p122
sS'cache'
p123
S'<gluon.cache.Cache object>'
p124
sS'IS_IN_DB'
p125
S"<class 'gluon.validators.IS_IN_DB'>"
p126
sS'TAG'
p127
S'<gluon.html.__TAG__ object>'
p128
sS'SQLField'
p129
S"<class 'gluon.dal.Field'>"
p130
sS'mail'
p131
S'<gluon.tools.Mail object>'
p132
sS'BODY'
p133
S"<class 'gluon.html.BODY'>"
p134
sS'IS_DATE_IN_RANGE'
p135
S"<class 'gluon.validators.IS_DATE_IN_RANGE'>"
p136
sS'TH'
p137
S"<class 'gluon.html.TH'>"
p138
sS'URL'
p139
S'<function URL>'
p140
sS'__file__'
p141
S"r'C:\\Users\\Aguilar\\Documents\\web2py\\applications\\thegarage\\models\\tables.py'"
p142
sS'db'
p143
S'<DAL uri="sqlite://storage.sqlite">'
p144
sS'auth'
p145
S'<gluon.tools.Auth object>'
p146
sS'P'
S"<class 'gluon.html.P'>"
p147
sS'TFOOT'
p148
S"<class 'gluon.html.TFOOT'>"
p149
sS'XHTML'
p150
S"<class 'gluon.html.XHTML'>"
p151
sS'datetime'
p152
S"<type 'datetime.datetime'>"
p153
sS'ON'
p154
S'True'
p155
sS'OL'
p156
S"<class 'gluon.html.OL'>"
p157
sS'TEXTAREA'
p158
S"<class 'gluon.html.TEXTAREA'>"
p159
sS'MENU'
p160
S"<class 'gluon.html.MENU'>"
p161
sS'LOAD'
p162
S'<function LOAD>'
p163
sS'CODE'
p164
S"<class 'gluon.html.CODE'>"
p165
sS'HTTP'
p166
S"<class 'gluon.http.HTTP'>"
p167
sS'HR'
p168
S"<class 'gluon.html.HR'>"
p169
sS'IS_DATETIME'
p170
S"<class 'gluon.validators.IS_DATETIME'>"
p171
sS'HEAD'
p172
S"<class 'gluon.html.HEAD'>"
p173
sS'LABEL'
p174
S"<class 'gluon.html.LABEL'>"
p175
sS'CLEANUP'
p176
S"<class 'gluon.validators.CLEANUP'>"
p177
sS'plugins'
p178
S'<gluon.tools.PluginManager object>'
p179
sS'SELECT'
p180
S"<class 'gluon.html.SELECT'>"
p181
sS'use_janrain'
p182
S'<function use_janrain>'
p183
sS'CENTER'
p184
S"<class 'gluon.html.CENTER'>"
p185
sS'prettydate'
p186
S'<function prettydate>'
p187
sS'Crud'
p188
S"<class 'gluon.tools.Crud'>"
p189
sS'Auth'
p190
S"<class 'gluon.tools.Auth'>"
p191
sS'DEVELOPMENT_MENU'
p192
g155
sS'__builtins__'
p193
S"{'ArithmeticError': <type 'exceptions.ArithmeticError'>, 'AssertionError': <type 'exceptions.AssertionError'>, 'AttributeError': <type 'exceptions.AttributeError'>, 'BaseException': <type 'exceptions.BaseException'>, 'BufferError': <type 'exceptions.BufferError'>, 'BytesWarning': <type 'exceptions.BytesWarning'>, 'DeprecationWarning': <type 'exceptions.DeprecationWarning'>, 'EOFError': <type 'exceptions.EOFError'>, 'Ellipsis': Ellipsis, 'EnvironmentError': <type 'exceptions.EnvironmentError'>, ...}"
p194
sS'HTML'
p195
S"<class 'gluon.html.HTML'>"
p196
sS'SQLFORM'
p197
S"<class 'gluon.sqlhtml.SQLFORM'>"
p198
sS'EM'
p199
S"<class 'gluon.html.EM'>"
p200
sS'redirect'
p201
S'<function redirect>'
p202
sS'FIELDSET'
p203
S"<class 'gluon.html.FIELDSET'>"
p204
sS'IS_EQUAL_TO'
p205
S"<class 'gluon.validators.IS_EQUAL_TO'>"
p206
sS'embed64'
p207
S'<function embed64>'
p208
sS'IS_LIST_OF'
p209
S"<class 'gluon.validators.IS_LIST_OF'>"
p210
sS'__name__'
p211
S"'__restricted__'"
p212
sS'EMBED'
p213
S"<class 'gluon.html.EMBED'>"
p214
sS'_'
S'<function _>'
p215
sS'FORM'
p216
S"<class 'gluon.html.FORM'>"
p217
sS'H2'
p218
S"<class 'gluon.html.H2'>"
p219
sS'H3'
p220
S"<class 'gluon.html.H3'>"
p221
sS'BUTTON'
p222
S"<class 'gluon.html.BUTTON'>"
p223
sS'H1'
p224
S"<class 'gluon.html.H1'>"
p225
sS'H6'
p226
S"<class 'gluon.html.H6'>"
p227
sS'H4'
p228
S"<class 'gluon.html.H4'>"
p229
sS'H5'
p230
S"<class 'gluon.html.H5'>"
p231
sS'UL'
p232
S"<class 'gluon.html.UL'>"
p233
sS'IS_UPPER'
p234
S"<class 'gluon.validators.IS_UPPER'>"
p235
sS'xmlescape'
p236
S'<function xmlescape>'
p237
sS'IS_TIME'
p238
S"<class 'gluon.validators.IS_TIME'>"
p239
sS'OPTION'
p240
S"<class 'gluon.html.OPTION'>"
p241
sS'TITLE'
p242
S"<class 'gluon.html.TITLE'>"
p243
sS'CRYPT'
p244
S"<class 'gluon.validators.CRYPT'>"
p245
sS'IS_EMPTY_OR'
p246
S"<class 'gluon.validators.IS_EMPTY_OR'>"
p247
sS'MARKMIN'
p248
S"<class 'gluon.html.MARKMIN'>"
p249
sS'INPUT'
p250
S"<class 'gluon.html.INPUT'>"
p251
sS'STRONG'
p252
S"<class 'gluon.html.STRONG'>"
p253
sS'COL'
p254
S"<class 'gluon.html.COL'>"
p255
sS'service'
p256
S'<gluon.tools.Service object>'
p257
sS'SCRIPT'
p258
S"<class 'gluon.html.SCRIPT'>"
p259
sS'TABLE'
p260
S"<class 'gluon.html.TABLE'>"
p261
sS'IS_IPV4'
p262
S"<class 'gluon.validators.IS_IPV4'>"
p263
sS'IS_LENGTH'
p264
S"<class 'gluon.validators.IS_LENGTH'>"
p265
sS'IS_IPV6'
p266
S"<class 'gluon.validators.IS_IPV6'>"
p267
sS'XML'
p268
S"<class 'gluon.html.XML'>"
p269
sS'B'
S"<class 'gluon.html.B'>"
p270
sS'IMG'
p271
S"<class 'gluon.html.IMG'>"
p272
sS'SQLTABLE'
p273
S"<class 'gluon.sqlhtml.SQLTABLE'>"
p274
sS'IS_MATCH'
p275
S"<class 'gluon.validators.IS_MATCH'>"
p276
sS'IS_ALPHANUMERIC'
p277
S"<class 'gluon.validators.IS_ALPHANUMERIC'>"
p278
sS'SPAN'
p279
S"<class 'gluon.html.SPAN'>"
p280
sS'IS_JSON'
p281
S"<class 'gluon.validators.IS_JSON'>"
p282
sS'IS_IPADDRESS'
p283
S"<class 'gluon.validators.IS_IPADDRESS'>"
p284
sS'IS_SLUG'
p285
S"<class 'gluon.validators.IS_SLUG'>"
p286
sS'BEAUTIFY'
p287
S"<class 'gluon.html.BEAUTIFY'>"
p288
sS'META'
p289
S"<class 'gluon.html.META'>"
p290
sS'IS_DATE'
p291
S"<class 'gluon.validators.IS_DATE'>"
p292
sS'IS_EMAIL'
p293
S"<class 'gluon.validators.IS_EMAIL'>"
p294
sS'IS_NOT_EMPTY'
p295
S"<class 'gluon.validators.IS_NOT_EMPTY'>"
p296
sg56
S"<Storage {'_vars': None, 'function': 'Borrowed',...\\\\Documents\\\\web2py\\\\applications\\\\thegarage\\\\'}>"
p297
sS'TBODY'
p298
S"<class 'gluon.html.TBODY'>"
p299
sS'CAT'
p300
S"<class 'gluon.html.CAT'>"
p301
sS'Field'
p302
S"<class 'gluon.dal.Field'>"
p303
sS'IS_LIST_OF_EMAILS'
p304
S"<class 'gluon.validators.IS_LIST_OF_EMAILS'>"
p305
sS'DIV'
p306
S"<class 'gluon.html.DIV'>"
p307
sS'LEGEND'
p308
S"<class 'gluon.html.LEGEND'>"
p309
sS'COLGROUP'
p310
S"<class 'gluon.html.COLGROUP'>"
p311
sS'DAL'
p312
S"<class 'gluon.dal.DAL'>"
p313
sS'TT'
p314
S"<class 'gluon.html.TT'>"
p315
sS'TR'
p316
S"<class 'gluon.html.TR'>"
p317
sS'__package__'
p318
S'None'
p319
sS'IFRAME'
p320
S"<class 'gluon.html.IFRAME'>"
p321
sS'TD'
p322
S"<class 'gluon.html.TD'>"
p323
sS'PluginManager'
p324
S"<class 'gluon.tools.PluginManager'>"
p325
sS'IS_URL'
p326
S"<class 'gluon.validators.IS_URL'>"
p327
sS'A'
S"<class 'gluon.html.A'>"
p328
sS'STYLE'
p329
S"<class 'gluon.html.STYLE'>"
p330
sS'IS_DATETIME_IN_RANGE'
p331
S"<class 'gluon.validators.IS_DATETIME_IN_RANGE'>"
p332
sS'IS_IMAGE'
p333
S"<class 'gluon.validators.IS_IMAGE'>"
p334
sS'I'
S"<class 'gluon.html.I'>"
p335
sS'crud'
p336
S'<gluon.tools.Crud object>'
p337
sS'IS_NOT_IN_DB'
p338
S"<class 'gluon.validators.IS_NOT_IN_DB'>"
p339
sg94
S"<Storage {'body': <cStringIO.StringO object at 0...at 0x07EF7170>, 'view': 'default/Borrowed.html'}>"
p340
sS'THEAD'
p341
S"<class 'gluon.html.THEAD'>"
p342
sS'ANY_OF'
p343
S"<class 'gluon.validators.ANY_OF'>"
p344
sS'IS_NULL_OR'
p345
S"<class 'gluon.validators.IS_EMPTY_OR'>"
p346
sS'IS_FLOAT_IN_RANGE'
p347
S"<class 'gluon.validators.IS_FLOAT_IN_RANGE'>"
p348
sS'IS_EXPR'
p349
S"<class 'gluon.validators.IS_EXPR'>"
p350
sS'IS_IN_SET'
p351
S"<class 'gluon.validators.IS_IN_SET'>"
p352
sS'IS_UPLOAD_FILENAME'
p353
S"<class 'gluon.validators.IS_UPLOAD_FILENAME'>"
p354
sS'IS_DECIMAL_IN_RANGE'
p355
S"<class 'gluon.validators.IS_DECIMAL_IN_RANGE'>"
p356
sS'T'
S'<gluon.languages.translator object>'
p357
sssS'traceback'
p358
S'Traceback (most recent call last):\n  File "/home/mdipierro/make_web2py/web2py/gluon/restricted.py", line 217, in restricted\n  File "C:\\Users\\Aguilar\\Documents\\web2py\\applications\\thegarage\\models\\tables.py", line 9, in <module>\nTypeError: __init__() got an unexpected keyword argument \'defualt\'\n'
p359
s.